

Microchip MPLAB XC8 Assembler V2.41 build 20230208172133 
                                                                                               Sun Sep 10 17:22:16 2023

Microchip MPLAB XC8 C Compiler v2.41 (Free license) build 20230208172133 Og1 
     1                           	processor	18F4620
     2                           	fnconf	rparam,??,?,0
     3                           	pagewidth 120
     4                           	opt	flic
     5                           	psect	idataCOMRAM,global,class=CODE,delta=1,noexec
     6                           	psect	idataBANK0,global,class=CODE,delta=1,noexec
     7                           	psect	smallconst,global,reloc=2,class=SMALLCONST,delta=1,noexec
     8                           	psect	cinit,global,reloc=2,class=CODE,delta=1
     9                           	psect	bssCOMRAM,global,class=COMRAM,space=1,delta=1,lowdata,noexec
    10                           	psect	dataCOMRAM,global,class=COMRAM,space=1,delta=1,lowdata,noexec
    11                           	psect	bssBANK0,global,class=BANK0,space=1,delta=1,lowdata,noexec
    12                           	psect	dataBANK0,global,class=BANK0,space=1,delta=1,lowdata,noexec
    13                           	psect	cstackBANK0,global,class=BANK0,space=1,delta=1,lowdata,noexec
    14                           	psect	cstackCOMRAM,global,class=COMRAM,space=1,delta=1,lowdata,noexec
    15                           	psect	text0,global,reloc=2,class=CODE,delta=1
    16                           	psect	text1,global,reloc=2,class=CODE,delta=1
    17                           	psect	intcode,global,reloc=2,class=CODE,delta=1
    18                           	psect	intcode_body,global,reloc=2,class=CODE,delta=1
    19                           	psect	text3,global,reloc=2,class=CODE,delta=1
    20                           	psect	text4,global,reloc=2,class=CODE,delta=1
    21                           	psect	text5,global,reloc=2,class=CODE,delta=1
    22                           	psect	text6,global,reloc=2,class=CODE,delta=1
    23                           	psect	text7,global,reloc=2,class=CODE,delta=1
    24                           	psect	text8,global,reloc=2,class=CODE,delta=1
    25                           	psect	text9,global,reloc=2,class=CODE,delta=1
    26                           	psect	text10,global,reloc=2,class=CODE,delta=1
    27                           	psect	text11,global,reloc=2,class=CODE,delta=1
    28                           	psect	text12,global,reloc=2,class=CODE,delta=1
    29                           	psect	text13,global,reloc=2,class=CODE,delta=1
    30                           	psect	text14,global,reloc=2,class=CODE,delta=1
    31                           	psect	text15,global,reloc=2,class=CODE,delta=1
    32                           	psect	text16,global,reloc=2,class=CODE,delta=1
    33                           	psect	text17,global,reloc=2,class=CODE,delta=1
    34                           	psect	text18,global,reloc=2,class=CODE,delta=1
    35                           	psect	text19,global,reloc=2,class=CODE,delta=1
    36                           	psect	text20,global,reloc=2,class=CODE,delta=1
    37                           	psect	text21,global,reloc=2,class=CODE,delta=1
    38                           	psect	text22,global,reloc=2,class=CODE,delta=1
    39                           	psect	intsave_regs,global,class=BIGRAM,space=1,delta=1,noexec
    40                           	psect	rparam,global,class=COMRAM,space=1,delta=1,noexec
    41                           	psect	temp,global,ovrld,common,class=COMRAM,space=1,delta=1
    42                           	psect	idloc,global,abs,ovrld,class=IDLOC,space=5,delta=1,noexec
    43                           	psect	config,global,abs,ovrld,class=CONFIG,space=4,delta=1,noexec
    44   000000                     
    45                           ; Version 2.40
    46                           ; Generated 17/11/2021 GMT
    47                           ; 
    48                           ; Copyright © 2021, Microchip Technology Inc. and its subsidiaries ("Microchip")
    49                           ; All rights reserved.
    50                           ; 
    51                           ; This software is developed by Microchip Technology Inc. and its subsidiaries ("Microch
      +                          ip").
    52                           ; 
    53                           ; Redistribution and use in source and binary forms, with or without modification, are
    54                           ; permitted provided that the following conditions are met:
    55                           ; 
    56                           ;     1. Redistributions of source code must retain the above copyright notice, this lis
      +                          t of
    57                           ;        conditions and the following disclaimer.
    58                           ; 
    59                           ;     2. Redistributions in binary form must reproduce the above copyright notice, this 
      +                          list
    60                           ;        of conditions and the following disclaimer in the documentation and/or other
    61                           ;        materials provided with the distribution. Publication is not required when
    62                           ;        this file is used in an embedded application.
    63                           ; 
    64                           ;     3. Microchip's name may not be used to endorse or promote products derived from th
      +                          is
    65                           ;        software without specific prior written permission.
    66                           ; 
    67                           ; THIS SOFTWARE IS PROVIDED BY MICROCHIP "AS IS" AND ANY EXPRESS OR IMPLIED WARRANTIES,
    68                           ; INCLUDING, BUT NOT LIMITED TO, THE IMPLIED WARRANTIES OF MERCHANTABILITY AND FITNESS F
      +                          OR
    69                           ; PURPOSE ARE DISCLAIMED.  IN NO EVENT SHALL MICROCHIP BE LIABLE FOR ANY DIRECT, INDIREC
      +                          T,
    70                           ; INCIDENTAL, SPECIAL, EXEMPLARY, OR CONSEQUENTIAL DAMAGES (INCLUDING BUT NOT LIMITED TO
    71                           ; PROCUREMENT OF SUBSTITUTE GOODS OR SERVICES; LOSS OF USE, DATA OR PROFITS; OR BUSINESS
    72                           ; INTERRUPTION) HOWSOEVER CAUSED AND ON ANY THEORY OF LIABILITY, WHETHER IN CONTRACT, ST
      +                          RICT
    73                           ; LIABILITY, OR TORT (INCLUDING NEGLIGENCE OR OTHERWISE) ARISING IN ANY WAY OUT OF THE U
      +                          SE OF
    74                           ; THIS SOFTWARE, EVEN IF ADVISED OF THE POSSIBILITY OF SUCH DAMAGE.
    75                           ; 
    76                           ; 
    77                           ; Code-generator required, PIC18F4620 Definitions
    78                           ; 
    79                           ; SFR Addresses
    80   000000                     
    81                           	psect	idataCOMRAM
    82   00151E                     __pidataCOMRAM:
    83                           	callstack 0
    84                           
    85                           ;initializer for _Port_Reg
    86   00151E  80                 	db	128
    87   00151F  0F                 	db	15
    88   001520  81                 	db	129
    89   001521  0F                 	db	15
    90   001522  82                 	db	130
    91   001523  0F                 	db	15
    92   001524  83                 	db	131
    93   001525  0F                 	db	15
    94   001526  84                 	db	132
    95   001527  0F                 	db	15
    96                           
    97                           ;initializer for _Lat_Reg
    98   001528  89                 	db	137
    99   001529  0F                 	db	15
   100   00152A  8A                 	db	138
   101   00152B  0F                 	db	15
   102   00152C  8B                 	db	139
   103   00152D  0F                 	db	15
   104   00152E  8C                 	db	140
   105   00152F  0F                 	db	15
   106   001530  8D                 	db	141
   107   001531  0F                 	db	15
   108                           
   109                           ;initializer for _Tris_Reg
   110   001532  92                 	db	146
   111   001533  0F                 	db	15
   112   001534  93                 	db	147
   113   001535  0F                 	db	15
   114   001536  94                 	db	148
   115   001537  0F                 	db	15
   116   001538  95                 	db	149
   117   001539  0F                 	db	15
   118   00153A  96                 	db	150
   119   00153B  0F                 	db	15
   120                           
   121                           ;initializer for servo_motor_intialize@F2926
   122   00153C  00                 	db	0
   123   00153D  00                 	db	0
   124   00153E  02                 	db	2
   125                           
   126                           ;initializer for MSSP_SPI_Slave_Mode_GPIO_PIN_Configurations@F2886
   127   00153F  68                 	db	104
   128                           
   129                           ;initializer for MSSP_SPI_Slave_Mode_GPIO_PIN_Configurations@F2884
   130   001540  5A                 	db	90
   131                           
   132                           ;initializer for MSSP_SPI_Slave_Mode_GPIO_PIN_Configurations@F2882
   133   001541  62                 	db	98
   134                           
   135                           ;initializer for MSSP_SPI_Slave_Mode_GPIO_PIN_Configurations@F2880
   136   001542  2A                 	db	42
   137                           
   138                           ;initializer for MSSP_SPI_Msster_Mode_GPIO_PIN_Configurations@F2875
   139   001543  1A                 	db	26
   140                           
   141                           ;initializer for MSSP_SPI_Msster_Mode_GPIO_PIN_Configurations@F2873
   142   001544  62                 	db	98
   143                           
   144                           ;initializer for MSSP_SPI_Msster_Mode_GPIO_PIN_Configurations@F2871
   145   001545  2A                 	db	42
   146                           
   147                           ;initializer for _RB7_flag
   148   001546  01                 	db	1
   149                           
   150                           ;initializer for _RB6_flag
   151   001547  01                 	db	1
   152                           
   153                           ;initializer for _RB5_flag
   154   001548  01                 	db	1
   155                           
   156                           ;initializer for _RB4_flag
   157   001549  01                 	db	1
   158                           
   159                           	psect	idataBANK0
   160   0014AE                     __pidataBANK0:
   161                           	callstack 0
   162                           
   163                           ;initializer for servo_motor_set_angle@F2946
   164   0014AE  01                 	db	1
   165   0014AF  02                 	db	2
   166   0014B0  0C                 	db	12
   167   0014B1  0A                 	db	10
   168   0014B2  00                 	db	0
   169   0014B3  0032               	dw	50
   170   0014B5  01                 	db	1
   171   0014B6  10                 	db	16
   172   0014B7  00                 	db	0
   173   0014B8  00                 	db	0
   174   0014B9  00                 	db	0
   175   0014BA  00                 	db	0
   176                           
   177                           ;initializer for servo_motor_set_angle@F2943
   178   0014BB  00                 	db	0
   179   0014BC  02                 	db	2
   180   0014BD  0C                 	db	12
   181   0014BE  12                 	db	18
   182   0014BF  00                 	db	0
   183   0014C0  0032               	dw	50
   184   0014C2  01                 	db	1
   185   0014C3  10                 	db	16
   186   0014C4  00                 	db	0
   187   0014C5  00                 	db	0
   188   0014C6  00                 	db	0
   189   0014C7  00                 	db	0
   190                           
   191                           ;initializer for servo_motor_intialize@F2931
   192   0014C8  01                 	db	1
   193   0014C9  02                 	db	2
   194   0014CA  0C                 	db	12
   195   0014CB  0A                 	db	10
   196   0014CC  00                 	db	0
   197   0014CD  0032               	dw	50
   198   0014CF  01                 	db	1
   199   0014D0  10                 	db	16
   200   0014D1  00                 	db	0
   201   0014D2  00                 	db	0
   202   0014D3  00                 	db	0
   203   0014D4  00                 	db	0
   204                           
   205                           ;initializer for servo_motor_intialize@F2928
   206   0014D5  00                 	db	0
   207   0014D6  02                 	db	2
   208   0014D7  0C                 	db	12
   209   0014D8  12                 	db	18
   210   0014D9  00                 	db	0
   211   0014DA  0032               	dw	50
   212   0014DC  01                 	db	1
   213   0014DD  10                 	db	16
   214   0014DE  00                 	db	0
   215   0014DF  00                 	db	0
   216   0014E0  00                 	db	0
   217   0014E1  00                 	db	0
   218                           
   219                           ;initializer for _key_pad1
   220   0014E2  03                 	db	3
   221   0014E3  0B                 	db	11
   222   0014E4  13                 	db	19
   223   0014E5  1B                 	db	27
   224   0014E6  63                 	db	99
   225   0014E7  6B                 	db	107
   226   0014E8  73                 	db	115
   227   0014E9  7B                 	db	123
   228                           
   229                           ;initializer for _lcd1
   230   0014EA  02                 	db	2
   231   0014EB  0A                 	db	10
   232   0014EC  12                 	db	18
   233   0014ED  1A                 	db	26
   234   0014EE  22                 	db	34
   235   0014EF  2A                 	db	42
   236                           
   237                           	psect	smallconst
   238   001000                     __psmallconst:
   239                           	callstack 0
   240   001000  00                 	db	0
   241   001001                     _Key_Pad_Array:
   242                           	callstack 0
   243   001001  37                 	db	55
   244   001002  38                 	db	56
   245   001003  39                 	db	57
   246   001004  2F                 	db	47
   247   001005  34                 	db	52
   248   001006  35                 	db	53
   249   001007  36                 	db	54
   250   001008  2A                 	db	42
   251   001009  31                 	db	49
   252   00100A  32                 	db	50
   253   00100B  33                 	db	51
   254   00100C  2D                 	db	45
   255   00100D  40                 	db	64
   256   00100E  30                 	db	48
   257   00100F  3D                 	db	61
   258   001010  2B                 	db	43
   259   001011                     __end_of_Key_Pad_Array:
   260                           	callstack 0
   261   000000                     _SPBRGH	set	4016
   262   000000                     _SPBRG	set	4015
   263   000000                     _TXREG	set	4013
   264   000000                     _TXSTAbits	set	4012
   265   000000                     _RCREG	set	4014
   266   000000                     _RCSTAbits	set	4011
   267   000000                     _TMR3L	set	4018
   268   000000                     _TMR3H	set	4019
   269   000000                     _TMR2	set	4044
   270   000000                     _T2CONbits	set	4042
   271   000000                     _TMR1L	set	4046
   272   000000                     _TMR1H	set	4047
   273   000000                     _T1CONbits	set	4045
   274   000000                     _TMR0L	set	4054
   275   000000                     _TMR0H	set	4055
   276   000000                     _T0CONbits	set	4053
   277   000000                     _INTCON2bits	set	4081
   278   000000                     _INTCON3bits	set	4080
   279   000000                     _SSPBUF	set	4041
   280   000000                     _SSPSTATbits	set	4039
   281   000000                     _SSPADD	set	4040
   282   000000                     _SSPCON2bits	set	4037
   283   000000                     _SSPCON1bits	set	4038
   284   000000                     _EECON2	set	4007
   285   000000                     _ECCP1ASbits	set	4022
   286   000000                     _PWM1CONbits	set	4023
   287   000000                     _INTCONbits	set	4082
   288   000000                     _ADCON1bits	set	4033
   289   000000                     _ADRESL	set	4035
   290   000000                     _ADRESH	set	4036
   291   000000                     _TRISD	set	3989
   292   000000                     _TRISC	set	3988
   293   000000                     _PR2	set	4043
   294   000000                     _TRISB	set	3987
   295   000000                     _TRISE	set	3990
   296   000000                     _PORTBbits	set	3969
   297   000000                     _TRISCbits	set	3988
   298   000000                     _ADCON2bits	set	4032
   299   000000                     _ADCON0bits	set	4034
   300   000000                     _PORTE	set	3972
   301   000000                     _PORTD	set	3971
   302   000000                     _PORTC	set	3970
   303   000000                     _PORTB	set	3969
   304   000000                     _PORTA	set	3968
   305   000000                     _LATA	set	3977
   306   000000                     _TRISA	set	3986
   307   000000                     _PIE1bits	set	3997
   308   000000                     _CCP2CONbits	set	4026
   309   000000                     _CCP1CONbits	set	4029
   310   000000                     _CCPR1L	set	4030
   311   000000                     _CCPR2L	set	4027
   312   000000                     _PIR1bits	set	3998
   313   000000                     _PIE2bits	set	4000
   314   000000                     _EECON1bits	set	4006
   315   000000                     _EEDATA	set	4008
   316   000000                     _EEADR	set	4009
   317   000000                     _EEADRH	set	4010
   318   000000                     _PIR2bits	set	4001
   319   000000                     _T3CONbits	set	4017
   320   000000                     _BAUDCONbits	set	4024
   321   000000                     _LATE	set	3981
   322   000000                     _LATD	set	3980
   323   000000                     _LATC	set	3979
   324   000000                     _LATB	set	3978
   325   001011                     STR_1:
   326   001011  25                 	db	37
   327   001012  69                 	db	105	;'i'
   328   001013  00                 	db	0
   329   001014  00                 	db	0	; dummy byte at the end
   330   000000                     
   331                           ; #config settings
   332                           
   333                           	psect	cinit
   334   00144C                     __pcinit:
   335                           	callstack 0
   336   00144C                     start_initialization:
   337                           	callstack 0
   338   00144C                     __initialization:
   339                           	callstack 0
   340                           
   341                           ; Initialize objects allocated to BANK0 (66 bytes)
   342                           ; load TBLPTR registers with __pidataBANK0
   343   00144C  0EAE               	movlw	low __pidataBANK0
   344   00144E  6EF6               	movwf	tblptrl,c
   345   001450  0E14               	movlw	high __pidataBANK0
   346   001452  6EF7               	movwf	tblptrh,c
   347   001454  0E00               	movlw	low (__pidataBANK0 shr (0+16))
   348   001456  6EF8               	movwf	tblptru,c
   349   001458  EE00  F080         	lfsr	0,__pdataBANK0
   350   00145C  EE10 F042          	lfsr	1,66
   351   001460                     copy_data0:
   352   001460  0009               	tblrd		*+
   353   001462  CFF5 FFEE          	movff	tablat,postinc0
   354   001466  50E5               	movf	postdec1,w,c
   355   001468  50E1               	movf	fsr1l,w,c
   356   00146A  E1FA               	bnz	copy_data0
   357                           
   358                           ; Initialize objects allocated to COMRAM (44 bytes)
   359                           ; load TBLPTR registers with __pidataCOMRAM
   360   00146C  0E1E               	movlw	low __pidataCOMRAM
   361   00146E  6EF6               	movwf	tblptrl,c
   362   001470  0E15               	movlw	high __pidataCOMRAM
   363   001472  6EF7               	movwf	tblptrh,c
   364   001474  0E00               	movlw	low (__pidataCOMRAM shr (0+16))
   365   001476  6EF8               	movwf	tblptru,c
   366   001478  EE00  F04E         	lfsr	0,__pdataCOMRAM
   367   00147C  EE10 F02C          	lfsr	1,44
   368   001480                     copy_data1:
   369   001480  0009               	tblrd		*+
   370   001482  CFF5 FFEE          	movff	tablat,postinc0
   371   001486  50E5               	movf	postdec1,w,c
   372   001488  50E1               	movf	fsr1l,w,c
   373   00148A  E1FA               	bnz	copy_data1
   374                           
   375                           ; Clear objects allocated to BANK0 (11 bytes)
   376   00148C  EE00  F0C2         	lfsr	0,__pbssBANK0
   377   001490  0E0B               	movlw	11
   378   001492                     clear_0:
   379   001492  6AEE               	clrf	postinc0,c
   380   001494  06E8               	decf	wreg,f,c
   381   001496  E1FD               	bnz	clear_0
   382                           
   383                           ; Clear objects allocated to COMRAM (77 bytes)
   384   001498  EE00  F001         	lfsr	0,__pbssCOMRAM
   385   00149C  0E4D               	movlw	77
   386   00149E                     clear_1:
   387   00149E  6AEE               	clrf	postinc0,c
   388   0014A0  06E8               	decf	wreg,f,c
   389   0014A2  E1FD               	bnz	clear_1
   390   0014A4                     end_of_initialization:
   391                           	callstack 0
   392   0014A4                     __end_of__initialization:
   393                           	callstack 0
   394   0014A4  907D               	bcf	int$flags,0,c	;clear compiler interrupt flag (level 1)
   395   0014A6  927D               	bcf	int$flags,1,c	;clear compiler interrupt flag (level 2)
   396   0014A8  0100               	movlb	0
   397   0014AA  EFD9  F00A         	goto	_main	;jump to C main() function
   398                           
   399                           	psect	bssCOMRAM
   400   000001                     __pbssCOMRAM:
   401                           	callstack 0
   402   000001                     	ds	6
   403   000007                     	ds	4
   404   00000B                     _ret:
   405                           	callstack 0
   406   00000B                     	ds	2
   407   00000D                     _EUSART_OVERRUNERRORDefaultHandler_:
   408                           	callstack 0
   409   00000D                     	ds	2
   410   00000F                     _EUSART_FRAMINGERRORDefaultHandler_:
   411                           	callstack 0
   412   00000F                     	ds	2
   413   000011                     _USART_RX_IntterruptHandeler_:
   414                           	callstack 0
   415   000011                     	ds	2
   416   000013                     _USART_TX_IntterruptHandeler_:
   417                           	callstack 0
   418   000013                     	ds	2
   419   000015                     _timer3_preload_value:
   420                           	callstack 0
   421   000015                     	ds	2
   422   000017                     _TIMER3_InterruptHandler:
   423                           	callstack 0
   424   000017                     	ds	2
   425   000019                     _pre_load@mcal_timer2$F3818:
   426                           	callstack 0
   427   000019                     	ds	2
   428   00001B                     _pre_load@mcal_timer1$F3715:
   429                           	callstack 0
   430   00001B                     	ds	2
   431   00001D                     _TIMER1_IntterruptHandeler:
   432                           	callstack 0
   433   00001D                     	ds	2
   434   00001F                     _pre_load:
   435                           	callstack 0
   436   00001F                     	ds	2
   437   000021                     _TIMER0_IntterruptHandeler:
   438                           	callstack 0
   439   000021                     	ds	2
   440   000023                     _MSSP_SPI_IntterruptHandeler:
   441                           	callstack 0
   442   000023                     	ds	2
   443   000025                     _RB7_interruptHandler_Low:
   444                           	callstack 0
   445   000025                     	ds	2
   446   000027                     _RB7_interruptHandler_High:
   447                           	callstack 0
   448   000027                     	ds	2
   449   000029                     _RB6_interruptHandler_Low:
   450                           	callstack 0
   451   000029                     	ds	2
   452   00002B                     _RB6_interruptHandler_High:
   453                           	callstack 0
   454   00002B                     	ds	2
   455   00002D                     _RB5_interruptHandler_Low:
   456                           	callstack 0
   457   00002D                     	ds	2
   458   00002F                     _RB5_interruptHandler_High:
   459                           	callstack 0
   460   00002F                     	ds	2
   461   000031                     _RB4_interruptHandler_Low:
   462                           	callstack 0
   463   000031                     	ds	2
   464   000033                     _RB4_interruptHandler_High:
   465                           	callstack 0
   466   000033                     	ds	2
   467   000035                     _INT2_interruptHandler:
   468                           	callstack 0
   469   000035                     	ds	2
   470   000037                     _INT1_interruptHandler:
   471                           	callstack 0
   472   000037                     	ds	2
   473   000039                     _INT0_interruptHandler:
   474                           	callstack 0
   475   000039                     	ds	2
   476   00003B                     	ds	2
   477   00003D                     _I2C_DefaultInterruptHandle:
   478                           	callstack 0
   479   00003D                     	ds	2
   480   00003F                     _I2C_Report_Write_Collision_InterruptHandler:
   481                           	callstack 0
   482   00003F                     	ds	2
   483   000041                     _ECCP_IntterruptHandeler_:
   484                           	callstack 0
   485   000041                     	ds	2
   486   000043                     _CCP2_IntterruptHandeler:
   487                           	callstack 0
   488   000043                     	ds	2
   489   000045                     _CCP1_IntterruptHandeler:
   490                           	callstack 0
   491   000045                     	ds	2
   492   000047                     Relay_Turn_Off@F2829:
   493                           	callstack 0
   494   000047                     	ds	1
   495   000048                     Relay_Turn_On@F2823:
   496                           	callstack 0
   497   000048                     	ds	1
   498   000049                     Relay_Intialize@F2818:
   499                           	callstack 0
   500   000049                     	ds	1
   501   00004A                     Led_Toggle@F2835:
   502                           	callstack 0
   503   00004A                     	ds	1
   504   00004B                     Led_Turn_Off@F2830:
   505                           	callstack 0
   506   00004B                     	ds	1
   507   00004C                     Led_Turn_On@F2825:
   508                           	callstack 0
   509   00004C                     	ds	1
   510   00004D                     Led_Intialize@F2820:
   511                           	callstack 0
   512   00004D                     	ds	1
   513                           
   514                           	psect	dataCOMRAM
   515   00004E                     __pdataCOMRAM:
   516                           	callstack 0
   517   00004E                     _Port_Reg:
   518                           	callstack 0
   519   00004E                     	ds	10
   520   000058                     _Lat_Reg:
   521                           	callstack 0
   522   000058                     	ds	10
   523   000062                     _Tris_Reg:
   524                           	callstack 0
   525   000062                     	ds	10
   526   00006C                     servo_motor_intialize@F2926:
   527                           	callstack 0
   528   00006C                     	ds	3
   529   00006F                     MSSP_SPI_Slave_Mode_GPIO_PIN_Configurations@F2886:
   530                           	callstack 0
   531   00006F                     	ds	1
   532   000070                     MSSP_SPI_Slave_Mode_GPIO_PIN_Configurations@F2884:
   533                           	callstack 0
   534   000070                     	ds	1
   535   000071                     MSSP_SPI_Slave_Mode_GPIO_PIN_Configurations@F2882:
   536                           	callstack 0
   537   000071                     	ds	1
   538   000072                     MSSP_SPI_Slave_Mode_GPIO_PIN_Configurations@F2880:
   539                           	callstack 0
   540   000072                     	ds	1
   541   000073                     MSSP_SPI_Msster_Mode_GPIO_PIN_Configurations@F2875:
   542                           	callstack 0
   543   000073                     	ds	1
   544   000074                     MSSP_SPI_Msster_Mode_GPIO_PIN_Configurations@F2873:
   545                           	callstack 0
   546   000074                     	ds	1
   547   000075                     MSSP_SPI_Msster_Mode_GPIO_PIN_Configurations@F2871:
   548                           	callstack 0
   549   000075                     	ds	1
   550   000076                     _RB7_flag:
   551                           	callstack 0
   552   000076                     	ds	1
   553   000077                     _RB6_flag:
   554                           	callstack 0
   555   000077                     	ds	1
   556   000078                     _RB5_flag:
   557                           	callstack 0
   558   000078                     	ds	1
   559   000079                     _RB4_flag:
   560                           	callstack 0
   561   000079                     	ds	1
   562                           
   563                           	psect	bssBANK0
   564   0000C2                     __pbssBANK0:
   565                           	callstack 0
   566   0000C2                     	ds	11
   567                           
   568                           	psect	dataBANK0
   569   000080                     __pdataBANK0:
   570                           	callstack 0
   571   000080                     servo_motor_set_angle@F2946:
   572                           	callstack 0
   573   000080                     	ds	13
   574   00008D                     servo_motor_set_angle@F2943:
   575                           	callstack 0
   576   00008D                     	ds	13
   577   00009A                     servo_motor_intialize@F2931:
   578                           	callstack 0
   579   00009A                     	ds	13
   580   0000A7                     servo_motor_intialize@F2928:
   581                           	callstack 0
   582   0000A7                     	ds	13
   583   0000B4                     _key_pad1:
   584                           	callstack 0
   585   0000B4                     	ds	8
   586   0000BC                     _lcd1:
   587                           	callstack 0
   588   0000BC                     	ds	6
   589                           
   590                           	psect	cstackBANK0
   591   000000                     __pcstackBANK0:
   592                           	callstack 0
   593   000000                     
   594                           ; 1 bytes @ 0x0
   595                           
   596                           	psect	cstackCOMRAM
   597   00007A                     __pcstackCOMRAM:
   598                           	callstack 0
   599   00007A                     RB4_ISR@state:
   600                           	callstack 0
   601   00007A                     RB5_ISR@state:
   602                           	callstack 0
   603   00007A                     RB6_ISR@state:
   604                           	callstack 0
   605   00007A                     RB7_ISR@state:
   606                           	callstack 0
   607                           
   608                           ; 1 bytes @ 0x0
   609   00007A                     	ds	1
   610   00007B                     ??_InterruptManagerHigh:
   611                           
   612                           ; 1 bytes @ 0x1
   613   00007B                     	ds	2
   614                           
   615 ;;
   616 ;;Main: autosize = 0, tempsize = 0, incstack = 0, save=0
   617 ;;
   618 ;; *************** function _main *****************
   619 ;; Defined at:
   620 ;;		line 13 in file "Application.c"
   621 ;; Parameters:    Size  Location     Type
   622 ;;		None
   623 ;; Auto vars:     Size  Location     Type
   624 ;;		None
   625 ;; Return value:  Size  Location     Type
   626 ;;                  2  1663[None  ] int 
   627 ;; Registers used:
   628 ;;		cstack
   629 ;; Tracked objects:
   630 ;;		On entry : 0/0
   631 ;;		On exit  : 0/0
   632 ;;		Unchanged: 0/0
   633 ;; Data sizes:     COMRAM   BANK0   BANK1   BANK2   BANK3   BANK4   BANK5   BANK6   BANK7   BANK8   BANK9  BANK10  BANK1
      +1  BANK12  BANK13  BANK14  BANK15
   634 ;;      Params:         0       0       0       0       0       0       0       0       0       0       0       0       
      +0       0       0       0       0
   635 ;;      Locals:         0       0       0       0       0       0       0       0       0       0       0       0       
      +0       0       0       0       0
   636 ;;      Temps:          0       0       0       0       0       0       0       0       0       0       0       0       
      +0       0       0       0       0
   637 ;;      Totals:         0       0       0       0       0       0       0       0       0       0       0       0       
      +0       0       0       0       0
   638 ;;Total ram usage:        0 bytes
   639 ;; Hardware stack levels required when called: 4
   640 ;; This function calls:
   641 ;;		_intialization
   642 ;; This function is called by:
   643 ;;		Startup code after reset
   644 ;; This function uses a non-reentrant model
   645 ;;
   646                           
   647                           	psect	text0
   648   0015B2                     __ptext0:
   649                           	callstack 0
   650   0015B2                     _main:
   651                           	callstack 27
   652   0015B2                     
   653                           ;Application.c: 14:     intialization();
   654   0015B2  EC02  F00B         	call	_intialization	;wreg free
   655   0015B6                     l1664:
   656   0015B6  EFDB  F00A         	goto	l1664
   657   0015BA  EF07  F000         	goto	start
   658   0015BE                     __end_of_main:
   659                           	callstack 0
   660                           
   661 ;; *************** function _intialization *****************
   662 ;; Defined at:
   663 ;;		line 24 in file "Application.c"
   664 ;; Parameters:    Size  Location     Type
   665 ;;		None
   666 ;; Auto vars:     Size  Location     Type
   667 ;;		None
   668 ;; Return value:  Size  Location     Type
   669 ;;                  1    wreg      void 
   670 ;; Registers used:
   671 ;;		None
   672 ;; Tracked objects:
   673 ;;		On entry : 0/0
   674 ;;		On exit  : 0/0
   675 ;;		Unchanged: 0/0
   676 ;; Data sizes:     COMRAM   BANK0   BANK1   BANK2   BANK3   BANK4   BANK5   BANK6   BANK7   BANK8   BANK9  BANK10  BANK1
      +1  BANK12  BANK13  BANK14  BANK15
   677 ;;      Params:         0       0       0       0       0       0       0       0       0       0       0       0       
      +0       0       0       0       0
   678 ;;      Locals:         0       0       0       0       0       0       0       0       0       0       0       0       
      +0       0       0       0       0
   679 ;;      Temps:          0       0       0       0       0       0       0       0       0       0       0       0       
      +0       0       0       0       0
   680 ;;      Totals:         0       0       0       0       0       0       0       0       0       0       0       0       
      +0       0       0       0       0
   681 ;;Total ram usage:        0 bytes
   682 ;; Hardware stack levels used: 1
   683 ;; Hardware stack levels required when called: 3
   684 ;; This function calls:
   685 ;;		Nothing
   686 ;; This function is called by:
   687 ;;		_main
   688 ;; This function uses a non-reentrant model
   689 ;;
   690                           
   691                           	psect	text1
   692   001604                     __ptext1:
   693                           	callstack 0
   694   001604                     _intialization:
   695                           	callstack 27
   696   001604  0012               	return		;funcret
   697   001606                     __end_of_intialization:
   698                           	callstack 0
   699                           
   700 ;; *************** function _InterruptManagerHigh *****************
   701 ;; Defined at:
   702 ;;		line 41 in file "MCAL_Layer/Interrupt/mcal_interrupt_manager.c"
   703 ;; Parameters:    Size  Location     Type
   704 ;;		None
   705 ;; Auto vars:     Size  Location     Type
   706 ;;		None
   707 ;; Return value:  Size  Location     Type
   708 ;;                  1    wreg      void 
   709 ;; Registers used:
   710 ;;		wreg, status,2, status,0, pcl, pclath, pclatu, tosl, cstack
   711 ;; Tracked objects:
   712 ;;		On entry : 0/0
   713 ;;		On exit  : 0/0
   714 ;;		Unchanged: 0/0
   715 ;; Data sizes:     COMRAM   BANK0   BANK1   BANK2   BANK3   BANK4   BANK5   BANK6   BANK7   BANK8   BANK9  BANK10  BANK1
      +1  BANK12  BANK13  BANK14  BANK15
   716 ;;      Params:         0       0       0       0       0       0       0       0       0       0       0       0       
      +0       0       0       0       0
   717 ;;      Locals:         0       0       0       0       0       0       0       0       0       0       0       0       
      +0       0       0       0       0
   718 ;;      Temps:          2       0       0       0       0       0       0       0       0       0       0       0       
      +0       0       0       0       0
   719 ;;      Totals:         2       0       0       0       0       0       0       0       0       0       0       0       
      +0       0       0       0       0
   720 ;;Total ram usage:        2 bytes
   721 ;; Hardware stack levels used: 1
   722 ;; Hardware stack levels required when called: 2
   723 ;; This function calls:
   724 ;;		_ADC_ISR
   725 ;;		_CCP1_ISR
   726 ;;		_CCP2_ISR
   727 ;;		_ECCP_ISR
   728 ;;		_INT0_ISR
   729 ;;		_INT1_ISR
   730 ;;		_INT2_ISR
   731 ;;		_MSSP_I2C_BC_ISR
   732 ;;		_MSSP_I2C_ISR
   733 ;;		_RB4_ISR
   734 ;;		_RB5_ISR
   735 ;;		_RB6_ISR
   736 ;;		_RB7_ISR
   737 ;;		_SPI_ISR
   738 ;;		_TIMER0_ISR
   739 ;;		_TIMER1_ISR
   740 ;;		_TIMER2_ISR
   741 ;;		_TIMER3_ISR
   742 ;;		_USART_RX_ISR
   743 ;;		_USART_TX_ISR
   744 ;; This function is called by:
   745 ;;		Interrupt level 2
   746 ;; This function uses a non-reentrant model
   747 ;;
   748                           
   749                           	psect	intcode
   750   000008                     __pintcode:
   751                           	callstack 0
   752   000008                     _InterruptManagerHigh:
   753                           	callstack 27
   754                           
   755                           ;incstack = 0
   756   000008  827D               	bsf	int$flags,1,c	;set compiler interrupt flag (level 2)
   757   00000A  ED0B  F008         	call	int_func,f	;refresh shadow registers
   758                           
   759                           	psect	intcode_body
   760   001016                     __pintcode_body:
   761                           	callstack 27
   762   001016                     int_func:
   763                           	callstack 27
   764   001016  0006               	pop		; remove dummy address from shadow register refresh
   765   001018  CFFA F07B          	movff	pclath,??_InterruptManagerHigh
   766   00101C  CFFB F07C          	movff	pclatu,??_InterruptManagerHigh+1
   767   001020                     
   768                           ;MCAL_Layer/Interrupt/mcal_interrupt_manager.c: 43:     if((1 == INTCONbits.INT0IE) && (
      +                          1 == INTCONbits.INT0IF))
   769   001020  A8F2               	btfss	242,4,c	;volatile
   770   001022  EF15  F008         	goto	i2u204_41
   771   001026  EF17  F008         	goto	i2u204_40
   772   00102A                     i2u204_41:
   773   00102A  EF20  F008         	goto	i2l1182
   774   00102E                     i2u204_40:
   775   00102E  A2F2               	btfss	242,1,c	;volatile
   776   001030  EF1C  F008         	goto	i2u205_41
   777   001034  EF1E  F008         	goto	i2u205_40
   778   001038                     i2u205_41:
   779   001038  EF20  F008         	goto	i2l1182
   780   00103C                     i2u205_40:
   781   00103C                     
   782                           ;MCAL_Layer/Interrupt/mcal_interrupt_manager.c: 44:     {;MCAL_Layer/Interrupt/mcal_inte
      +                          rrupt_manager.c: 45:        INT0_ISR();
   783   00103C  ECFC  F00A         	call	_INT0_ISR	;wreg free
   784   001040                     i2l1182:
   785                           
   786                           ;MCAL_Layer/Interrupt/mcal_interrupt_manager.c: 48:     if((1 == INTCON3bits.INT1IE) && 
      +                          (1 == INTCON3bits.INT1IF))
   787   001040  A6F0               	btfss	240,3,c	;volatile
   788   001042  EF25  F008         	goto	i2u206_41
   789   001046  EF27  F008         	goto	i2u206_40
   790   00104A                     i2u206_41:
   791   00104A  EF30  F008         	goto	i2l1184
   792   00104E                     i2u206_40:
   793   00104E  A0F0               	btfss	240,0,c	;volatile
   794   001050  EF2C  F008         	goto	i2u207_41
   795   001054  EF2E  F008         	goto	i2u207_40
   796   001058                     i2u207_41:
   797   001058  EF30  F008         	goto	i2l1184
   798   00105C                     i2u207_40:
   799   00105C                     
   800                           ;MCAL_Layer/Interrupt/mcal_interrupt_manager.c: 49:     {;MCAL_Layer/Interrupt/mcal_inte
      +                          rrupt_manager.c: 50:        INT1_ISR();
   801   00105C  ECFA  F00A         	call	_INT1_ISR	;wreg free
   802   001060                     i2l1184:
   803                           
   804                           ;MCAL_Layer/Interrupt/mcal_interrupt_manager.c: 53:     if((1 == INTCON3bits.INT2IE) && 
      +                          (1 == INTCON3bits.INT2IF))
   805   001060  A8F0               	btfss	240,4,c	;volatile
   806   001062  EF35  F008         	goto	i2u208_41
   807   001066  EF37  F008         	goto	i2u208_40
   808   00106A                     i2u208_41:
   809   00106A  EF40  F008         	goto	i2l1186
   810   00106E                     i2u208_40:
   811   00106E  A2F0               	btfss	240,1,c	;volatile
   812   001070  EF3C  F008         	goto	i2u209_41
   813   001074  EF3E  F008         	goto	i2u209_40
   814   001078                     i2u209_41:
   815   001078  EF40  F008         	goto	i2l1186
   816   00107C                     i2u209_40:
   817   00107C                     
   818                           ;MCAL_Layer/Interrupt/mcal_interrupt_manager.c: 54:     {;MCAL_Layer/Interrupt/mcal_inte
      +                          rrupt_manager.c: 55:        INT2_ISR();
   819   00107C  ECF8  F00A         	call	_INT2_ISR	;wreg free
   820   001080                     i2l1186:
   821                           
   822                           ;MCAL_Layer/Interrupt/mcal_interrupt_manager.c: 60:     if((1 == INTCONbits.RBIE) && (1 
      +                          == INTCONbits.RBIF)
   823   001080  A6F2               	btfss	242,3,c	;volatile
   824   001082  EF45  F008         	goto	i2u210_41
   825   001086  EF47  F008         	goto	i2u210_40
   826   00108A                     i2u210_41:
   827   00108A  EF62  F008         	goto	i2l1188
   828   00108E                     i2u210_40:
   829   00108E  A0F2               	btfss	242,0,c	;volatile
   830   001090  EF4C  F008         	goto	i2u211_41
   831   001094  EF4E  F008         	goto	i2u211_40
   832   001098                     i2u211_41:
   833   001098  EF62  F008         	goto	i2l1188
   834   00109C                     i2u211_40:
   835   00109C  A881               	btfss	129,4,c	;volatile
   836   00109E  EF53  F008         	goto	i2u212_41
   837   0010A2  EF55  F008         	goto	i2u212_40
   838   0010A6                     i2u212_41:
   839   0010A6  EF62  F008         	goto	i2l1188
   840   0010AA                     i2u212_40:
   841   0010AA  0479               	decf	_RB4_flag^0,w,c	;volatile
   842   0010AC  A4D8               	btfss	status,2,c
   843   0010AE  EF5B  F008         	goto	i2u213_41
   844   0010B2  EF5D  F008         	goto	i2u213_40
   845   0010B6                     i2u213_41:
   846   0010B6  EF62  F008         	goto	i2l1188
   847   0010BA                     i2u213_40:
   848   0010BA                     
   849                           ;MCAL_Layer/Interrupt/mcal_interrupt_manager.c: 62:     {;MCAL_Layer/Interrupt/mcal_inte
      +                          rrupt_manager.c: 63:         RB4_flag = 0;
   850   0010BA  0E00               	movlw	0
   851   0010BC  6E79               	movwf	_RB4_flag^0,c	;volatile
   852   0010BE                     
   853                           ;MCAL_Layer/Interrupt/mcal_interrupt_manager.c: 64:        RB4_ISR(0);
   854   0010BE  0E00               	movlw	0
   855   0010C0  ECCC  F00A         	call	_RB4_ISR
   856   0010C4                     i2l1188:
   857                           
   858                           ;MCAL_Layer/Interrupt/mcal_interrupt_manager.c: 67:     if((1 == INTCONbits.RBIE) && (1 
      +                          == INTCONbits.RBIF)
   859   0010C4  A6F2               	btfss	242,3,c	;volatile
   860   0010C6  EF67  F008         	goto	i2u214_41
   861   0010CA  EF69  F008         	goto	i2u214_40
   862   0010CE                     i2u214_41:
   863   0010CE  EF84  F008         	goto	i2l1190
   864   0010D2                     i2u214_40:
   865   0010D2  A0F2               	btfss	242,0,c	;volatile
   866   0010D4  EF6E  F008         	goto	i2u215_41
   867   0010D8  EF70  F008         	goto	i2u215_40
   868   0010DC                     i2u215_41:
   869   0010DC  EF84  F008         	goto	i2l1190
   870   0010E0                     i2u215_40:
   871   0010E0  BA81               	btfsc	129,5,c	;volatile
   872   0010E2  EF75  F008         	goto	i2u216_41
   873   0010E6  EF77  F008         	goto	i2u216_40
   874   0010EA                     i2u216_41:
   875   0010EA  EF84  F008         	goto	i2l1190
   876   0010EE                     i2u216_40:
   877   0010EE  5079               	movf	_RB4_flag^0,w,c	;volatile
   878   0010F0  A4D8               	btfss	status,2,c
   879   0010F2  EF7D  F008         	goto	i2u217_41
   880   0010F6  EF7F  F008         	goto	i2u217_40
   881   0010FA                     i2u217_41:
   882   0010FA  EF84  F008         	goto	i2l1190
   883   0010FE                     i2u217_40:
   884   0010FE                     
   885                           ;MCAL_Layer/Interrupt/mcal_interrupt_manager.c: 69:     {;MCAL_Layer/Interrupt/mcal_inte
      +                          rrupt_manager.c: 70:         RB4_flag = 1;
   886   0010FE  0E01               	movlw	1
   887   001100  6E79               	movwf	_RB4_flag^0,c	;volatile
   888   001102                     
   889                           ;MCAL_Layer/Interrupt/mcal_interrupt_manager.c: 71:        RB4_ISR(1);
   890   001102  0E01               	movlw	1
   891   001104  ECCC  F00A         	call	_RB4_ISR
   892   001108                     i2l1190:
   893                           
   894                           ;MCAL_Layer/Interrupt/mcal_interrupt_manager.c: 74:      if((1 == INTCONbits.RBIE) && (1
      +                           == INTCONbits.RBIF)
   895   001108  A6F2               	btfss	242,3,c	;volatile
   896   00110A  EF89  F008         	goto	i2u218_41
   897   00110E  EF8B  F008         	goto	i2u218_40
   898   001112                     i2u218_41:
   899   001112  EFA6  F008         	goto	i2l1192
   900   001116                     i2u218_40:
   901   001116  A0F2               	btfss	242,0,c	;volatile
   902   001118  EF90  F008         	goto	i2u219_41
   903   00111C  EF92  F008         	goto	i2u219_40
   904   001120                     i2u219_41:
   905   001120  EFA6  F008         	goto	i2l1192
   906   001124                     i2u219_40:
   907   001124  AA81               	btfss	129,5,c	;volatile
   908   001126  EF97  F008         	goto	i2u220_41
   909   00112A  EF99  F008         	goto	i2u220_40
   910   00112E                     i2u220_41:
   911   00112E  EFA6  F008         	goto	i2l1192
   912   001132                     i2u220_40:
   913   001132  0478               	decf	_RB5_flag^0,w,c	;volatile
   914   001134  A4D8               	btfss	status,2,c
   915   001136  EF9F  F008         	goto	i2u221_41
   916   00113A  EFA1  F008         	goto	i2u221_40
   917   00113E                     i2u221_41:
   918   00113E  EFA6  F008         	goto	i2l1192
   919   001142                     i2u221_40:
   920   001142                     
   921                           ;MCAL_Layer/Interrupt/mcal_interrupt_manager.c: 76:     {;MCAL_Layer/Interrupt/mcal_inte
      +                          rrupt_manager.c: 77:          RB5_flag = 0;
   922   001142  0E00               	movlw	0
   923   001144  6E78               	movwf	_RB5_flag^0,c	;volatile
   924   001146                     
   925                           ;MCAL_Layer/Interrupt/mcal_interrupt_manager.c: 78:        RB5_ISR(0);
   926   001146  0E00               	movlw	0
   927   001148  ECBF  F00A         	call	_RB5_ISR
   928   00114C                     i2l1192:
   929                           
   930                           ;MCAL_Layer/Interrupt/mcal_interrupt_manager.c: 81:     if((1 == INTCONbits.RBIE) && (1 
      +                          == INTCONbits.RBIF)
   931   00114C  A6F2               	btfss	242,3,c	;volatile
   932   00114E  EFAB  F008         	goto	i2u222_41
   933   001152  EFAD  F008         	goto	i2u222_40
   934   001156                     i2u222_41:
   935   001156  EFC8  F008         	goto	i2l1194
   936   00115A                     i2u222_40:
   937   00115A  A0F2               	btfss	242,0,c	;volatile
   938   00115C  EFB2  F008         	goto	i2u223_41
   939   001160  EFB4  F008         	goto	i2u223_40
   940   001164                     i2u223_41:
   941   001164  EFC8  F008         	goto	i2l1194
   942   001168                     i2u223_40:
   943   001168  BA81               	btfsc	129,5,c	;volatile
   944   00116A  EFB9  F008         	goto	i2u224_41
   945   00116E  EFBB  F008         	goto	i2u224_40
   946   001172                     i2u224_41:
   947   001172  EFC8  F008         	goto	i2l1194
   948   001176                     i2u224_40:
   949   001176  5078               	movf	_RB5_flag^0,w,c	;volatile
   950   001178  A4D8               	btfss	status,2,c
   951   00117A  EFC1  F008         	goto	i2u225_41
   952   00117E  EFC3  F008         	goto	i2u225_40
   953   001182                     i2u225_41:
   954   001182  EFC8  F008         	goto	i2l1194
   955   001186                     i2u225_40:
   956   001186                     
   957                           ;MCAL_Layer/Interrupt/mcal_interrupt_manager.c: 83:     {;MCAL_Layer/Interrupt/mcal_inte
      +                          rrupt_manager.c: 84:         RB5_flag = 1;
   958   001186  0E01               	movlw	1
   959   001188  6E78               	movwf	_RB5_flag^0,c	;volatile
   960   00118A                     
   961                           ;MCAL_Layer/Interrupt/mcal_interrupt_manager.c: 85:        RB5_ISR(1);
   962   00118A  0E01               	movlw	1
   963   00118C  ECBF  F00A         	call	_RB5_ISR
   964   001190                     i2l1194:
   965                           
   966                           ;MCAL_Layer/Interrupt/mcal_interrupt_manager.c: 88:    if((1 == INTCONbits.RBIE) && (1 =
      +                          = INTCONbits.RBIF)
   967   001190  A6F2               	btfss	242,3,c	;volatile
   968   001192  EFCD  F008         	goto	i2u226_41
   969   001196  EFCF  F008         	goto	i2u226_40
   970   00119A                     i2u226_41:
   971   00119A  EFEA  F008         	goto	i2l1196
   972   00119E                     i2u226_40:
   973   00119E  A0F2               	btfss	242,0,c	;volatile
   974   0011A0  EFD4  F008         	goto	i2u227_41
   975   0011A4  EFD6  F008         	goto	i2u227_40
   976   0011A8                     i2u227_41:
   977   0011A8  EFEA  F008         	goto	i2l1196
   978   0011AC                     i2u227_40:
   979   0011AC  AC81               	btfss	129,6,c	;volatile
   980   0011AE  EFDB  F008         	goto	i2u228_41
   981   0011B2  EFDD  F008         	goto	i2u228_40
   982   0011B6                     i2u228_41:
   983   0011B6  EFEA  F008         	goto	i2l1196
   984   0011BA                     i2u228_40:
   985   0011BA  0477               	decf	_RB6_flag^0,w,c	;volatile
   986   0011BC  A4D8               	btfss	status,2,c
   987   0011BE  EFE3  F008         	goto	i2u229_41
   988   0011C2  EFE5  F008         	goto	i2u229_40
   989   0011C6                     i2u229_41:
   990   0011C6  EFEA  F008         	goto	i2l1196
   991   0011CA                     i2u229_40:
   992   0011CA                     
   993                           ;MCAL_Layer/Interrupt/mcal_interrupt_manager.c: 90:     {;MCAL_Layer/Interrupt/mcal_inte
      +                          rrupt_manager.c: 91:          RB6_flag = 0;
   994   0011CA  0E00               	movlw	0
   995   0011CC  6E77               	movwf	_RB6_flag^0,c	;volatile
   996   0011CE                     
   997                           ;MCAL_Layer/Interrupt/mcal_interrupt_manager.c: 92:        RB6_ISR(0);
   998   0011CE  0E00               	movlw	0
   999   0011D0  ECB2  F00A         	call	_RB6_ISR
  1000   0011D4                     i2l1196:
  1001                           
  1002                           ;MCAL_Layer/Interrupt/mcal_interrupt_manager.c: 95:     if((1 == INTCONbits.RBIE) && (1 
      +                          == INTCONbits.RBIF)
  1003   0011D4  A6F2               	btfss	242,3,c	;volatile
  1004   0011D6  EFEF  F008         	goto	i2u230_41
  1005   0011DA  EFF1  F008         	goto	i2u230_40
  1006   0011DE                     i2u230_41:
  1007   0011DE  EF0C  F009         	goto	i2l4257
  1008   0011E2                     i2u230_40:
  1009   0011E2  A0F2               	btfss	242,0,c	;volatile
  1010   0011E4  EFF6  F008         	goto	i2u231_41
  1011   0011E8  EFF8  F008         	goto	i2u231_40
  1012   0011EC                     i2u231_41:
  1013   0011EC  EF0C  F009         	goto	i2l4257
  1014   0011F0                     i2u231_40:
  1015   0011F0  BC81               	btfsc	129,6,c	;volatile
  1016   0011F2  EFFD  F008         	goto	i2u232_41
  1017   0011F6  EFFF  F008         	goto	i2u232_40
  1018   0011FA                     i2u232_41:
  1019   0011FA  EF0C  F009         	goto	i2l4257
  1020   0011FE                     i2u232_40:
  1021   0011FE  5077               	movf	_RB6_flag^0,w,c	;volatile
  1022   001200  A4D8               	btfss	status,2,c
  1023   001202  EF05  F009         	goto	i2u233_41
  1024   001206  EF07  F009         	goto	i2u233_40
  1025   00120A                     i2u233_41:
  1026   00120A  EF0C  F009         	goto	i2l4257
  1027   00120E                     i2u233_40:
  1028   00120E                     
  1029                           ;MCAL_Layer/Interrupt/mcal_interrupt_manager.c: 97:     {;MCAL_Layer/Interrupt/mcal_inte
      +                          rrupt_manager.c: 98:         RB6_flag = 1;
  1030   00120E  0E01               	movlw	1
  1031   001210  6E77               	movwf	_RB6_flag^0,c	;volatile
  1032   001212                     
  1033                           ;MCAL_Layer/Interrupt/mcal_interrupt_manager.c: 99:        RB6_ISR(1);
  1034   001212  0E01               	movlw	1
  1035   001214  ECB2  F00A         	call	_RB6_ISR
  1036   001218                     i2l4257:
  1037                           
  1038                           ;MCAL_Layer/Interrupt/mcal_interrupt_manager.c: 101:     if((1 == INTCONbits.RBIE) && (1
      +                           == INTCONbits.RBIF)
  1039   001218  A6F2               	btfss	242,3,c	;volatile
  1040   00121A  EF11  F009         	goto	i2u234_41
  1041   00121E  EF13  F009         	goto	i2u234_40
  1042   001222                     i2u234_41:
  1043   001222  EF2E  F009         	goto	i2l1199
  1044   001226                     i2u234_40:
  1045   001226  A0F2               	btfss	242,0,c	;volatile
  1046   001228  EF18  F009         	goto	i2u235_41
  1047   00122C  EF1A  F009         	goto	i2u235_40
  1048   001230                     i2u235_41:
  1049   001230  EF2E  F009         	goto	i2l1199
  1050   001234                     i2u235_40:
  1051   001234  AE81               	btfss	129,7,c	;volatile
  1052   001236  EF1F  F009         	goto	i2u236_41
  1053   00123A  EF21  F009         	goto	i2u236_40
  1054   00123E                     i2u236_41:
  1055   00123E  EF2E  F009         	goto	i2l1199
  1056   001242                     i2u236_40:
  1057   001242  0476               	decf	_RB7_flag^0,w,c	;volatile
  1058   001244  A4D8               	btfss	status,2,c
  1059   001246  EF27  F009         	goto	i2u237_41
  1060   00124A  EF29  F009         	goto	i2u237_40
  1061   00124E                     i2u237_41:
  1062   00124E  EF2E  F009         	goto	i2l1199
  1063   001252                     i2u237_40:
  1064   001252                     
  1065                           ;MCAL_Layer/Interrupt/mcal_interrupt_manager.c: 103:     {;MCAL_Layer/Interrupt/mcal_int
      +                          errupt_manager.c: 104:          RB7_flag = 0;
  1066   001252  0E00               	movlw	0
  1067   001254  6E76               	movwf	_RB7_flag^0,c	;volatile
  1068   001256                     
  1069                           ;MCAL_Layer/Interrupt/mcal_interrupt_manager.c: 105:        RB7_ISR(0);
  1070   001256  0E00               	movlw	0
  1071   001258  ECA5  F00A         	call	_RB7_ISR
  1072   00125C                     i2l1199:
  1073                           
  1074                           ;MCAL_Layer/Interrupt/mcal_interrupt_manager.c: 108:     if((1 == INTCONbits.RBIE) && (1
      +                           == INTCONbits.RBIF)
  1075   00125C  A6F2               	btfss	242,3,c	;volatile
  1076   00125E  EF33  F009         	goto	i2u238_41
  1077   001262  EF35  F009         	goto	i2u238_40
  1078   001266                     i2u238_41:
  1079   001266  EF50  F009         	goto	i2l4279
  1080   00126A                     i2u238_40:
  1081   00126A  A0F2               	btfss	242,0,c	;volatile
  1082   00126C  EF3A  F009         	goto	i2u239_41
  1083   001270  EF3C  F009         	goto	i2u239_40
  1084   001274                     i2u239_41:
  1085   001274  EF50  F009         	goto	i2l4279
  1086   001278                     i2u239_40:
  1087   001278  BE81               	btfsc	129,7,c	;volatile
  1088   00127A  EF41  F009         	goto	i2u240_41
  1089   00127E  EF43  F009         	goto	i2u240_40
  1090   001282                     i2u240_41:
  1091   001282  EF50  F009         	goto	i2l4279
  1092   001286                     i2u240_40:
  1093   001286  5076               	movf	_RB7_flag^0,w,c	;volatile
  1094   001288  A4D8               	btfss	status,2,c
  1095   00128A  EF49  F009         	goto	i2u241_41
  1096   00128E  EF4B  F009         	goto	i2u241_40
  1097   001292                     i2u241_41:
  1098   001292  EF50  F009         	goto	i2l4279
  1099   001296                     i2u241_40:
  1100   001296                     
  1101                           ;MCAL_Layer/Interrupt/mcal_interrupt_manager.c: 110:     {;MCAL_Layer/Interrupt/mcal_int
      +                          errupt_manager.c: 111:         RB7_flag = 1;
  1102   001296  0E01               	movlw	1
  1103   001298  6E76               	movwf	_RB7_flag^0,c	;volatile
  1104   00129A                     
  1105                           ;MCAL_Layer/Interrupt/mcal_interrupt_manager.c: 112:        RB7_ISR(1);
  1106   00129A  0E01               	movlw	1
  1107   00129C  ECA5  F00A         	call	_RB7_ISR
  1108   0012A0                     i2l4279:
  1109                           
  1110                           ;MCAL_Layer/Interrupt/mcal_interrupt_manager.c: 115:     if((1 == PIE1bits.ADIE) && (1 =
      +                          = PIR1bits.ADIF) )
  1111   0012A0  AC9D               	btfss	157,6,c	;volatile
  1112   0012A2  EF55  F009         	goto	i2u242_41
  1113   0012A6  EF57  F009         	goto	i2u242_40
  1114   0012AA                     i2u242_41:
  1115   0012AA  EF60  F009         	goto	i2l4285
  1116   0012AE                     i2u242_40:
  1117   0012AE  AC9E               	btfss	158,6,c	;volatile
  1118   0012B0  EF5C  F009         	goto	i2u243_41
  1119   0012B4  EF5E  F009         	goto	i2u243_40
  1120   0012B8                     i2u243_41:
  1121   0012B8  EF60  F009         	goto	i2l4285
  1122   0012BC                     i2u243_40:
  1123   0012BC                     
  1124                           ;MCAL_Layer/Interrupt/mcal_interrupt_manager.c: 116:     {;MCAL_Layer/Interrupt/mcal_int
      +                          errupt_manager.c: 117:        ADC_ISR();
  1125   0012BC  EC05  F00B         	call	_ADC_ISR	;wreg free
  1126   0012C0                     i2l4285:
  1127                           
  1128                           ;MCAL_Layer/Interrupt/mcal_interrupt_manager.c: 121:     if((1 == INTCONbits.TMR0IE) && 
      +                          (1 == INTCONbits.TMR0IF) )
  1129   0012C0  AAF2               	btfss	242,5,c	;volatile
  1130   0012C2  EF65  F009         	goto	i2u244_41
  1131   0012C6  EF67  F009         	goto	i2u244_40
  1132   0012CA                     i2u244_41:
  1133   0012CA  EF70  F009         	goto	i2l4291
  1134   0012CE                     i2u244_40:
  1135   0012CE  A4F2               	btfss	242,2,c	;volatile
  1136   0012D0  EF6C  F009         	goto	i2u245_41
  1137   0012D4  EF6E  F009         	goto	i2u245_40
  1138   0012D8                     i2u245_41:
  1139   0012D8  EF70  F009         	goto	i2l4291
  1140   0012DC                     i2u245_40:
  1141   0012DC                     
  1142                           ;MCAL_Layer/Interrupt/mcal_interrupt_manager.c: 122:     {;MCAL_Layer/Interrupt/mcal_int
      +                          errupt_manager.c: 123:        TIMER0_ISR();
  1143   0012DC  ECE5  F00A         	call	_TIMER0_ISR	;wreg free
  1144   0012E0                     i2l4291:
  1145                           
  1146                           ;MCAL_Layer/Interrupt/mcal_interrupt_manager.c: 126:     if((1 == PIE1bits.TMR1IE) && (1
      +                           == PIR1bits.TMR1IF) )
  1147   0012E0  A09D               	btfss	157,0,c	;volatile
  1148   0012E2  EF75  F009         	goto	i2u246_41
  1149   0012E6  EF77  F009         	goto	i2u246_40
  1150   0012EA                     i2u246_41:
  1151   0012EA  EF80  F009         	goto	i2l4297
  1152   0012EE                     i2u246_40:
  1153   0012EE  A09E               	btfss	158,0,c	;volatile
  1154   0012F0  EF7C  F009         	goto	i2u247_41
  1155   0012F4  EF7E  F009         	goto	i2u247_40
  1156   0012F8                     i2u247_41:
  1157   0012F8  EF80  F009         	goto	i2l4297
  1158   0012FC                     i2u247_40:
  1159   0012FC                     
  1160                           ;MCAL_Layer/Interrupt/mcal_interrupt_manager.c: 127:     {;MCAL_Layer/Interrupt/mcal_int
      +                          errupt_manager.c: 128:        TIMER1_ISR();
  1161   0012FC  ECEB  F00A         	call	_TIMER1_ISR	;wreg free
  1162   001300                     i2l4297:
  1163                           
  1164                           ;MCAL_Layer/Interrupt/mcal_interrupt_manager.c: 131:     if((1 == PIE1bits.TMR2IE) && (1
      +                           == PIR1bits.TMR2IF) )
  1165   001300  A29D               	btfss	157,1,c	;volatile
  1166   001302  EF85  F009         	goto	i2u248_41
  1167   001306  EF87  F009         	goto	i2u248_40
  1168   00130A                     i2u248_41:
  1169   00130A  EF90  F009         	goto	i2l4303
  1170   00130E                     i2u248_40:
  1171   00130E  A29E               	btfss	158,1,c	;volatile
  1172   001310  EF8C  F009         	goto	i2u249_41
  1173   001314  EF8E  F009         	goto	i2u249_40
  1174   001318                     i2u249_41:
  1175   001318  EF90  F009         	goto	i2l4303
  1176   00131C                     i2u249_40:
  1177   00131C                     
  1178                           ;MCAL_Layer/Interrupt/mcal_interrupt_manager.c: 132:     {;MCAL_Layer/Interrupt/mcal_int
      +                          errupt_manager.c: 133:        TIMER2_ISR();
  1179   00131C  EC04  F00B         	call	_TIMER2_ISR	;wreg free
  1180   001320                     i2l4303:
  1181                           
  1182                           ;MCAL_Layer/Interrupt/mcal_interrupt_manager.c: 136:     if((1 == PIE2bits.TMR3IE) && (1
      +                           == PIR2bits.TMR3IF) )
  1183   001320  A2A0               	btfss	160,1,c	;volatile
  1184   001322  EF95  F009         	goto	i2u250_41
  1185   001326  EF97  F009         	goto	i2u250_40
  1186   00132A                     i2u250_41:
  1187   00132A  EFA0  F009         	goto	i2l4309
  1188   00132E                     i2u250_40:
  1189   00132E  A2A1               	btfss	161,1,c	;volatile
  1190   001330  EF9C  F009         	goto	i2u251_41
  1191   001334  EF9E  F009         	goto	i2u251_40
  1192   001338                     i2u251_41:
  1193   001338  EFA0  F009         	goto	i2l4309
  1194   00133C                     i2u251_40:
  1195   00133C                     
  1196                           ;MCAL_Layer/Interrupt/mcal_interrupt_manager.c: 137:     {;MCAL_Layer/Interrupt/mcal_int
      +                          errupt_manager.c: 138:        TIMER3_ISR();
  1197   00133C  ECDF  F00A         	call	_TIMER3_ISR	;wreg free
  1198   001340                     i2l4309:
  1199                           
  1200                           ;MCAL_Layer/Interrupt/mcal_interrupt_manager.c: 141:     if((1 == PIE1bits.CCP1IE) && (1
      +                           == PIR1bits.CCP1IF) )
  1201   001340  A49D               	btfss	157,2,c	;volatile
  1202   001342  EFA5  F009         	goto	i2u252_41
  1203   001346  EFA7  F009         	goto	i2u252_40
  1204   00134A                     i2u252_41:
  1205   00134A  EFB0  F009         	goto	i2l4315
  1206   00134E                     i2u252_40:
  1207   00134E  A49E               	btfss	158,2,c	;volatile
  1208   001350  EFAC  F009         	goto	i2u253_41
  1209   001354  EFAE  F009         	goto	i2u253_40
  1210   001358                     i2u253_41:
  1211   001358  EFB0  F009         	goto	i2l4315
  1212   00135C                     i2u253_40:
  1213   00135C                     
  1214                           ;MCAL_Layer/Interrupt/mcal_interrupt_manager.c: 142:     {;MCAL_Layer/Interrupt/mcal_int
      +                          errupt_manager.c: 143:        CCP1_ISR();
  1215   00135C  EC00  F00B         	call	_CCP1_ISR	;wreg free
  1216   001360                     i2l4315:
  1217                           
  1218                           ;MCAL_Layer/Interrupt/mcal_interrupt_manager.c: 146:     if((1 == PIE2bits.CCP2IE) && (1
      +                           == PIR2bits.CCP2IF) )
  1219   001360  A0A0               	btfss	160,0,c	;volatile
  1220   001362  EFB5  F009         	goto	i2u254_41
  1221   001366  EFB7  F009         	goto	i2u254_40
  1222   00136A                     i2u254_41:
  1223   00136A  EFC0  F009         	goto	i2l4321
  1224   00136E                     i2u254_40:
  1225   00136E  A0A1               	btfss	161,0,c	;volatile
  1226   001370  EFBC  F009         	goto	i2u255_41
  1227   001374  EFBE  F009         	goto	i2u255_40
  1228   001378                     i2u255_41:
  1229   001378  EFC0  F009         	goto	i2l4321
  1230   00137C                     i2u255_40:
  1231   00137C                     
  1232                           ;MCAL_Layer/Interrupt/mcal_interrupt_manager.c: 147:     {;MCAL_Layer/Interrupt/mcal_int
      +                          errupt_manager.c: 148:        CCP2_ISR();
  1233   00137C  EC78  F00A         	call	_CCP2_ISR	;wreg free
  1234   001380                     i2l4321:
  1235                           
  1236                           ;MCAL_Layer/Interrupt/mcal_interrupt_manager.c: 151:     if((1 == PIE1bits.CCP1IE) && (1
      +                           == PIR1bits.CCP1IF) )
  1237   001380  A49D               	btfss	157,2,c	;volatile
  1238   001382  EFC5  F009         	goto	i2u256_41
  1239   001386  EFC7  F009         	goto	i2u256_40
  1240   00138A                     i2u256_41:
  1241   00138A  EFD0  F009         	goto	i2l4327
  1242   00138E                     i2u256_40:
  1243   00138E  A49E               	btfss	158,2,c	;volatile
  1244   001390  EFCC  F009         	goto	i2u257_41
  1245   001394  EFCE  F009         	goto	i2u257_40
  1246   001398                     i2u257_41:
  1247   001398  EFD0  F009         	goto	i2l4327
  1248   00139C                     i2u257_40:
  1249   00139C                     
  1250                           ;MCAL_Layer/Interrupt/mcal_interrupt_manager.c: 152:     {;MCAL_Layer/Interrupt/mcal_int
      +                          errupt_manager.c: 153:        ECCP_ISR();
  1251   00139C  ECFE  F00A         	call	_ECCP_ISR	;wreg free
  1252   0013A0                     i2l4327:
  1253                           
  1254                           ;MCAL_Layer/Interrupt/mcal_interrupt_manager.c: 156:     if((1 == PIE1bits.TXIE) && (1 =
      +                          = PIR1bits.TXIF) )
  1255   0013A0  A89D               	btfss	157,4,c	;volatile
  1256   0013A2  EFD5  F009         	goto	i2u258_41
  1257   0013A6  EFD7  F009         	goto	i2u258_40
  1258   0013AA                     i2u258_41:
  1259   0013AA  EFE0  F009         	goto	i2l4333
  1260   0013AE                     i2u258_40:
  1261   0013AE  A89E               	btfss	158,4,c	;volatile
  1262   0013B0  EFDC  F009         	goto	i2u259_41
  1263   0013B4  EFDE  F009         	goto	i2u259_40
  1264   0013B8                     i2u259_41:
  1265   0013B8  EFE0  F009         	goto	i2l4333
  1266   0013BC                     i2u259_40:
  1267   0013BC                     
  1268                           ;MCAL_Layer/Interrupt/mcal_interrupt_manager.c: 157:     {;MCAL_Layer/Interrupt/mcal_int
      +                          errupt_manager.c: 158:        USART_TX_ISR();
  1269   0013BC  ECF0  F00A         	call	_USART_TX_ISR	;wreg free
  1270   0013C0                     i2l4333:
  1271                           
  1272                           ;MCAL_Layer/Interrupt/mcal_interrupt_manager.c: 161:     if((1 == PIE1bits.RCIE) && (1 =
      +                          = PIR1bits.RCIF) )
  1273   0013C0  AA9D               	btfss	157,5,c	;volatile
  1274   0013C2  EFE5  F009         	goto	i2u260_41
  1275   0013C6  EFE7  F009         	goto	i2u260_40
  1276   0013CA                     i2u260_41:
  1277   0013CA  EFF0  F009         	goto	i2l4339
  1278   0013CE                     i2u260_40:
  1279   0013CE  AA9E               	btfss	158,5,c	;volatile
  1280   0013D0  EFEC  F009         	goto	i2u261_41
  1281   0013D4  EFEE  F009         	goto	i2u261_40
  1282   0013D8                     i2u261_41:
  1283   0013D8  EFF0  F009         	goto	i2l4339
  1284   0013DC                     i2u261_40:
  1285   0013DC                     
  1286                           ;MCAL_Layer/Interrupt/mcal_interrupt_manager.c: 162:     {;MCAL_Layer/Interrupt/mcal_int
      +                          errupt_manager.c: 163:        USART_RX_ISR();
  1287   0013DC  EC03  F00B         	call	_USART_RX_ISR	;wreg free
  1288   0013E0                     i2l4339:
  1289                           
  1290                           ;MCAL_Layer/Interrupt/mcal_interrupt_manager.c: 166:     if((1 == PIE1bits.SSPIE) && (1 
      +                          == PIR1bits.SSPIF) )
  1291   0013E0  A69D               	btfss	157,3,c	;volatile
  1292   0013E2  EFF5  F009         	goto	i2u262_41
  1293   0013E6  EFF7  F009         	goto	i2u262_40
  1294   0013EA                     i2u262_41:
  1295   0013EA  EF00  F00A         	goto	i2l4345
  1296   0013EE                     i2u262_40:
  1297   0013EE  A69E               	btfss	158,3,c	;volatile
  1298   0013F0  EFFC  F009         	goto	i2u263_41
  1299   0013F4  EFFE  F009         	goto	i2u263_40
  1300   0013F8                     i2u263_41:
  1301   0013F8  EF00  F00A         	goto	i2l4345
  1302   0013FC                     i2u263_40:
  1303   0013FC                     
  1304                           ;MCAL_Layer/Interrupt/mcal_interrupt_manager.c: 167:     {;MCAL_Layer/Interrupt/mcal_int
      +                          errupt_manager.c: 168:        SPI_ISR();
  1305   0013FC  ECF2  F00A         	call	_SPI_ISR	;wreg free
  1306   001400                     i2l4345:
  1307                           
  1308                           ;MCAL_Layer/Interrupt/mcal_interrupt_manager.c: 171:     if((1 == PIE1bits.SSPIE) && (1 
      +                          == PIR1bits.SSPIF) )
  1309   001400  A69D               	btfss	157,3,c	;volatile
  1310   001402  EF05  F00A         	goto	i2u264_41
  1311   001406  EF07  F00A         	goto	i2u264_40
  1312   00140A                     i2u264_41:
  1313   00140A  EF10  F00A         	goto	i2l4351
  1314   00140E                     i2u264_40:
  1315   00140E  A69E               	btfss	158,3,c	;volatile
  1316   001410  EF0C  F00A         	goto	i2u265_41
  1317   001414  EF0E  F00A         	goto	i2u265_40
  1318   001418                     i2u265_41:
  1319   001418  EF10  F00A         	goto	i2l4351
  1320   00141C                     i2u265_40:
  1321   00141C                     
  1322                           ;MCAL_Layer/Interrupt/mcal_interrupt_manager.c: 172:     {;MCAL_Layer/Interrupt/mcal_int
      +                          errupt_manager.c: 173:        MSSP_I2C_ISR();
  1323   00141C  ECF4  F00A         	call	_MSSP_I2C_ISR	;wreg free
  1324   001420                     i2l4351:
  1325                           
  1326                           ;MCAL_Layer/Interrupt/mcal_interrupt_manager.c: 176:     if((1 == PIE2bits.BCLIE) && (1 
      +                          == PIR2bits.BCLIF) )
  1327   001420  A6A0               	btfss	160,3,c	;volatile
  1328   001422  EF15  F00A         	goto	i2u266_41
  1329   001426  EF17  F00A         	goto	i2u266_40
  1330   00142A                     i2u266_41:
  1331   00142A  EF20  F00A         	goto	i2l1214
  1332   00142E                     i2u266_40:
  1333   00142E  A6A1               	btfss	161,3,c	;volatile
  1334   001430  EF1C  F00A         	goto	i2u267_41
  1335   001434  EF1E  F00A         	goto	i2u267_40
  1336   001438                     i2u267_41:
  1337   001438  EF20  F00A         	goto	i2l1214
  1338   00143C                     i2u267_40:
  1339   00143C                     
  1340                           ;MCAL_Layer/Interrupt/mcal_interrupt_manager.c: 177:     {;MCAL_Layer/Interrupt/mcal_int
      +                          errupt_manager.c: 178:        MSSP_I2C_BC_ISR();
  1341   00143C  ECF6  F00A         	call	_MSSP_I2C_BC_ISR	;wreg free
  1342   001440                     i2l1214:
  1343   001440  C07C  FFFB         	movff	??_InterruptManagerHigh+1,pclatu
  1344   001444  C07B  FFFA         	movff	??_InterruptManagerHigh,pclath
  1345   001448  927D               	bcf	int$flags,1,c	;clear compiler interrupt flag (level 2)
  1346   00144A  0011               	retfie		f
  1347   00144C                     __end_of_InterruptManagerHigh:
  1348                           	callstack 0
  1349                           
  1350 ;; *************** function _USART_TX_ISR *****************
  1351 ;; Defined at:
  1352 ;;		line 282 in file "MCAL_Layer/USART/hal_usart.c"
  1353 ;; Parameters:    Size  Location     Type
  1354 ;;		None
  1355 ;; Auto vars:     Size  Location     Type
  1356 ;;		None
  1357 ;; Return value:  Size  Location     Type
  1358 ;;                  1    wreg      void 
  1359 ;; Registers used:
  1360 ;;		None
  1361 ;; Tracked objects:
  1362 ;;		On entry : 0/0
  1363 ;;		On exit  : 0/0
  1364 ;;		Unchanged: 0/0
  1365 ;; Data sizes:     COMRAM   BANK0   BANK1   BANK2   BANK3   BANK4   BANK5   BANK6   BANK7   BANK8   BANK9  BANK10  BANK1
      +1  BANK12  BANK13  BANK14  BANK15
  1366 ;;      Params:         0       0       0       0       0       0       0       0       0       0       0       0       
      +0       0       0       0       0
  1367 ;;      Locals:         0       0       0       0       0       0       0       0       0       0       0       0       
      +0       0       0       0       0
  1368 ;;      Temps:          0       0       0       0       0       0       0       0       0       0       0       0       
      +0       0       0       0       0
  1369 ;;      Totals:         0       0       0       0       0       0       0       0       0       0       0       0       
      +0       0       0       0       0
  1370 ;;Total ram usage:        0 bytes
  1371 ;; Hardware stack levels used: 1
  1372 ;; This function calls:
  1373 ;;		Nothing
  1374 ;; This function is called by:
  1375 ;;		_InterruptManagerHigh
  1376 ;; This function uses a non-reentrant model
  1377 ;;
  1378                           
  1379                           	psect	text3
  1380   0015E0                     __ptext3:
  1381                           	callstack 0
  1382   0015E0                     _USART_TX_ISR:
  1383                           	callstack 28
  1384   0015E0                     
  1385                           ;MCAL_Layer/USART/hal_usart.c: 286:     PIE1bits.TXIE = 0;
  1386   0015E0  989D               	bcf	157,4,c	;volatile
  1387   0015E2  0012               	return		;funcret
  1388   0015E4                     __end_of_USART_TX_ISR:
  1389                           	callstack 0
  1390                           
  1391 ;; *************** function _USART_RX_ISR *****************
  1392 ;; Defined at:
  1393 ;;		line 293 in file "MCAL_Layer/USART/hal_usart.c"
  1394 ;; Parameters:    Size  Location     Type
  1395 ;;		None
  1396 ;; Auto vars:     Size  Location     Type
  1397 ;;		None
  1398 ;; Return value:  Size  Location     Type
  1399 ;;                  1    wreg      void 
  1400 ;; Registers used:
  1401 ;;		wreg, status,2, status,0
  1402 ;; Tracked objects:
  1403 ;;		On entry : 0/0
  1404 ;;		On exit  : 0/0
  1405 ;;		Unchanged: 0/0
  1406 ;; Data sizes:     COMRAM   BANK0   BANK1   BANK2   BANK3   BANK4   BANK5   BANK6   BANK7   BANK8   BANK9  BANK10  BANK1
      +1  BANK12  BANK13  BANK14  BANK15
  1407 ;;      Params:         0       0       0       0       0       0       0       0       0       0       0       0       
      +0       0       0       0       0
  1408 ;;      Locals:         0       0       0       0       0       0       0       0       0       0       0       0       
      +0       0       0       0       0
  1409 ;;      Temps:          0       0       0       0       0       0       0       0       0       0       0       0       
      +0       0       0       0       0
  1410 ;;      Totals:         0       0       0       0       0       0       0       0       0       0       0       0       
      +0       0       0       0       0
  1411 ;;Total ram usage:        0 bytes
  1412 ;; Hardware stack levels used: 1
  1413 ;; This function calls:
  1414 ;;		Nothing
  1415 ;; This function is called by:
  1416 ;;		_InterruptManagerHigh
  1417 ;; This function uses a non-reentrant model
  1418 ;;
  1419                           
  1420                           	psect	text4
  1421   001606                     __ptext4:
  1422                           	callstack 0
  1423   001606                     _USART_RX_ISR:
  1424                           	callstack 28
  1425   001606  0012               	return		;funcret
  1426   001608                     __end_of_USART_RX_ISR:
  1427                           	callstack 0
  1428                           
  1429 ;; *************** function _TIMER3_ISR *****************
  1430 ;; Defined at:
  1431 ;;		line 125 in file "MCAL_Layer/Timer3/mcal_timer3.c"
  1432 ;; Parameters:    Size  Location     Type
  1433 ;;		None
  1434 ;; Auto vars:     Size  Location     Type
  1435 ;;		None
  1436 ;; Return value:  Size  Location     Type
  1437 ;;                  1    wreg      void 
  1438 ;; Registers used:
  1439 ;;		wreg, status,2
  1440 ;; Tracked objects:
  1441 ;;		On entry : 0/0
  1442 ;;		On exit  : 0/0
  1443 ;;		Unchanged: 0/0
  1444 ;; Data sizes:     COMRAM   BANK0   BANK1   BANK2   BANK3   BANK4   BANK5   BANK6   BANK7   BANK8   BANK9  BANK10  BANK1
      +1  BANK12  BANK13  BANK14  BANK15
  1445 ;;      Params:         0       0       0       0       0       0       0       0       0       0       0       0       
      +0       0       0       0       0
  1446 ;;      Locals:         0       0       0       0       0       0       0       0       0       0       0       0       
      +0       0       0       0       0
  1447 ;;      Temps:          0       0       0       0       0       0       0       0       0       0       0       0       
      +0       0       0       0       0
  1448 ;;      Totals:         0       0       0       0       0       0       0       0       0       0       0       0       
      +0       0       0       0       0
  1449 ;;Total ram usage:        0 bytes
  1450 ;; Hardware stack levels used: 1
  1451 ;; This function calls:
  1452 ;;		Nothing
  1453 ;; This function is called by:
  1454 ;;		_InterruptManagerHigh
  1455 ;; This function uses a non-reentrant model
  1456 ;;
  1457                           
  1458                           	psect	text5
  1459   0015BE                     __ptext5:
  1460                           	callstack 0
  1461   0015BE                     _TIMER3_ISR:
  1462                           	callstack 28
  1463   0015BE                     
  1464                           ;MCAL_Layer/Timer3/mcal_timer3.c: 126:     (PIR2bits.TMR3IF = 0);
  1465   0015BE  92A1               	bcf	161,1,c	;volatile
  1466   0015C0                     
  1467                           ;MCAL_Layer/Timer3/mcal_timer3.c: 127:     TMR3H = (timer3_preload_value) >> 8;
  1468   0015C0  5016               	movf	(_timer3_preload_value+1)^0,w,c
  1469   0015C2  6EB3               	movwf	179,c	;volatile
  1470   0015C4                     
  1471                           ;MCAL_Layer/Timer3/mcal_timer3.c: 128:     TMR3L = (uint8)(timer3_preload_value);
  1472   0015C4  C015  FFB2         	movff	_timer3_preload_value,4018	;volatile
  1473   0015C8  0012               	return		;funcret
  1474   0015CA                     __end_of_TIMER3_ISR:
  1475                           	callstack 0
  1476                           
  1477 ;; *************** function _TIMER2_ISR *****************
  1478 ;; Defined at:
  1479 ;;		line 112 in file "MCAL_Layer/Timer2/mcal_timer2.c"
  1480 ;; Parameters:    Size  Location     Type
  1481 ;;		None
  1482 ;; Auto vars:     Size  Location     Type
  1483 ;;		None
  1484 ;; Return value:  Size  Location     Type
  1485 ;;                  1    wreg      void 
  1486 ;; Registers used:
  1487 ;;		None
  1488 ;; Tracked objects:
  1489 ;;		On entry : 0/0
  1490 ;;		On exit  : 0/0
  1491 ;;		Unchanged: 0/0
  1492 ;; Data sizes:     COMRAM   BANK0   BANK1   BANK2   BANK3   BANK4   BANK5   BANK6   BANK7   BANK8   BANK9  BANK10  BANK1
      +1  BANK12  BANK13  BANK14  BANK15
  1493 ;;      Params:         0       0       0       0       0       0       0       0       0       0       0       0       
      +0       0       0       0       0
  1494 ;;      Locals:         0       0       0       0       0       0       0       0       0       0       0       0       
      +0       0       0       0       0
  1495 ;;      Temps:          0       0       0       0       0       0       0       0       0       0       0       0       
      +0       0       0       0       0
  1496 ;;      Totals:         0       0       0       0       0       0       0       0       0       0       0       0       
      +0       0       0       0       0
  1497 ;;Total ram usage:        0 bytes
  1498 ;; Hardware stack levels used: 1
  1499 ;; This function calls:
  1500 ;;		Nothing
  1501 ;; This function is called by:
  1502 ;;		_InterruptManagerHigh
  1503 ;; This function uses a non-reentrant model
  1504 ;;
  1505                           
  1506                           	psect	text6
  1507   001608                     __ptext6:
  1508                           	callstack 0
  1509   001608                     _TIMER2_ISR:
  1510                           	callstack 28
  1511   001608  0012               	return		;funcret
  1512   00160A                     __end_of_TIMER2_ISR:
  1513                           	callstack 0
  1514                           
  1515 ;; *************** function _TIMER1_ISR *****************
  1516 ;; Defined at:
  1517 ;;		line 141 in file "MCAL_Layer/Timer1/mcal_timer1.c"
  1518 ;; Parameters:    Size  Location     Type
  1519 ;;		None
  1520 ;; Auto vars:     Size  Location     Type
  1521 ;;		None
  1522 ;; Return value:  Size  Location     Type
  1523 ;;                  1    wreg      void 
  1524 ;; Registers used:
  1525 ;;		wreg, status,2
  1526 ;; Tracked objects:
  1527 ;;		On entry : 0/0
  1528 ;;		On exit  : 0/0
  1529 ;;		Unchanged: 0/0
  1530 ;; Data sizes:     COMRAM   BANK0   BANK1   BANK2   BANK3   BANK4   BANK5   BANK6   BANK7   BANK8   BANK9  BANK10  BANK1
      +1  BANK12  BANK13  BANK14  BANK15
  1531 ;;      Params:         0       0       0       0       0       0       0       0       0       0       0       0       
      +0       0       0       0       0
  1532 ;;      Locals:         0       0       0       0       0       0       0       0       0       0       0       0       
      +0       0       0       0       0
  1533 ;;      Temps:          0       0       0       0       0       0       0       0       0       0       0       0       
      +0       0       0       0       0
  1534 ;;      Totals:         0       0       0       0       0       0       0       0       0       0       0       0       
      +0       0       0       0       0
  1535 ;;Total ram usage:        0 bytes
  1536 ;; Hardware stack levels used: 1
  1537 ;; This function calls:
  1538 ;;		Nothing
  1539 ;; This function is called by:
  1540 ;;		_InterruptManagerHigh
  1541 ;; This function uses a non-reentrant model
  1542 ;;
  1543                           
  1544                           	psect	text7
  1545   0015D6                     __ptext7:
  1546                           	callstack 0
  1547   0015D6                     _TIMER1_ISR:
  1548                           	callstack 28
  1549   0015D6                     
  1550                           ;MCAL_Layer/Timer1/mcal_timer1.c: 147:     TMR1H = (pre_load>>8);
  1551   0015D6  501C               	movf	(_pre_load@mcal_timer1$F3715+1)^0,w,c	;volatile
  1552   0015D8  6ECF               	movwf	207,c	;volatile
  1553   0015DA                     
  1554                           ;MCAL_Layer/Timer1/mcal_timer1.c: 148:     TMR1L = (uint8)(pre_load);
  1555   0015DA  C01B  FFCE         	movff	_pre_load@mcal_timer1$F3715,4046	;volatile
  1556   0015DE  0012               	return		;funcret
  1557   0015E0                     __end_of_TIMER1_ISR:
  1558                           	callstack 0
  1559                           
  1560 ;; *************** function _TIMER0_ISR *****************
  1561 ;; Defined at:
  1562 ;;		line 173 in file "MCAL_Layer/Timer0/mcal_timer0.c"
  1563 ;; Parameters:    Size  Location     Type
  1564 ;;		None
  1565 ;; Auto vars:     Size  Location     Type
  1566 ;;		None
  1567 ;; Return value:  Size  Location     Type
  1568 ;;                  1    wreg      void 
  1569 ;; Registers used:
  1570 ;;		wreg, status,2
  1571 ;; Tracked objects:
  1572 ;;		On entry : 0/0
  1573 ;;		On exit  : 0/0
  1574 ;;		Unchanged: 0/0
  1575 ;; Data sizes:     COMRAM   BANK0   BANK1   BANK2   BANK3   BANK4   BANK5   BANK6   BANK7   BANK8   BANK9  BANK10  BANK1
      +1  BANK12  BANK13  BANK14  BANK15
  1576 ;;      Params:         0       0       0       0       0       0       0       0       0       0       0       0       
      +0       0       0       0       0
  1577 ;;      Locals:         0       0       0       0       0       0       0       0       0       0       0       0       
      +0       0       0       0       0
  1578 ;;      Temps:          0       0       0       0       0       0       0       0       0       0       0       0       
      +0       0       0       0       0
  1579 ;;      Totals:         0       0       0       0       0       0       0       0       0       0       0       0       
      +0       0       0       0       0
  1580 ;;Total ram usage:        0 bytes
  1581 ;; Hardware stack levels used: 1
  1582 ;; This function calls:
  1583 ;;		Nothing
  1584 ;; This function is called by:
  1585 ;;		_InterruptManagerHigh
  1586 ;; This function uses a non-reentrant model
  1587 ;;
  1588                           
  1589                           	psect	text8
  1590   0015CA                     __ptext8:
  1591                           	callstack 0
  1592   0015CA                     _TIMER0_ISR:
  1593                           	callstack 28
  1594   0015CA                     
  1595                           ;MCAL_Layer/Timer0/mcal_timer0.c: 177:     (INTCONbits.TMR0IF = 0);
  1596   0015CA  94F2               	bcf	242,2,c	;volatile
  1597   0015CC                     
  1598                           ;MCAL_Layer/Timer0/mcal_timer0.c: 179:     TMR0H = (pre_load>>8);
  1599   0015CC  5020               	movf	(_pre_load+1)^0,w,c	;volatile
  1600   0015CE  6ED7               	movwf	215,c	;volatile
  1601   0015D0                     
  1602                           ;MCAL_Layer/Timer0/mcal_timer0.c: 180:     TMR0L = (uint8)(pre_load);
  1603   0015D0  C01F  FFD6         	movff	_pre_load,4054	;volatile
  1604   0015D4  0012               	return		;funcret
  1605   0015D6                     __end_of_TIMER0_ISR:
  1606                           	callstack 0
  1607                           
  1608 ;; *************** function _SPI_ISR *****************
  1609 ;; Defined at:
  1610 ;;		line 185 in file "MCAL_Layer/SPI/hal_spi.c"
  1611 ;; Parameters:    Size  Location     Type
  1612 ;;		None
  1613 ;; Auto vars:     Size  Location     Type
  1614 ;;		None
  1615 ;; Return value:  Size  Location     Type
  1616 ;;                  1    wreg      void 
  1617 ;; Registers used:
  1618 ;;		None
  1619 ;; Tracked objects:
  1620 ;;		On entry : 0/0
  1621 ;;		On exit  : 0/0
  1622 ;;		Unchanged: 0/0
  1623 ;; Data sizes:     COMRAM   BANK0   BANK1   BANK2   BANK3   BANK4   BANK5   BANK6   BANK7   BANK8   BANK9  BANK10  BANK1
      +1  BANK12  BANK13  BANK14  BANK15
  1624 ;;      Params:         0       0       0       0       0       0       0       0       0       0       0       0       
      +0       0       0       0       0
  1625 ;;      Locals:         0       0       0       0       0       0       0       0       0       0       0       0       
      +0       0       0       0       0
  1626 ;;      Temps:          0       0       0       0       0       0       0       0       0       0       0       0       
      +0       0       0       0       0
  1627 ;;      Totals:         0       0       0       0       0       0       0       0       0       0       0       0       
      +0       0       0       0       0
  1628 ;;Total ram usage:        0 bytes
  1629 ;; Hardware stack levels used: 1
  1630 ;; This function calls:
  1631 ;;		Nothing
  1632 ;; This function is called by:
  1633 ;;		_InterruptManagerHigh
  1634 ;; This function uses a non-reentrant model
  1635 ;;
  1636                           
  1637                           	psect	text9
  1638   0015E4                     __ptext9:
  1639                           	callstack 0
  1640   0015E4                     _SPI_ISR:
  1641                           	callstack 28
  1642   0015E4                     
  1643                           ;MCAL_Layer/SPI/hal_spi.c: 188:     (PIR1bits.SSPIF = 0);
  1644   0015E4  969E               	bcf	158,3,c	;volatile
  1645   0015E6  0012               	return		;funcret
  1646   0015E8                     __end_of_SPI_ISR:
  1647                           	callstack 0
  1648                           
  1649 ;; *************** function _RB7_ISR *****************
  1650 ;; Defined at:
  1651 ;;		line 260 in file "MCAL_Layer/Interrupt/mcal_external_interrupt.c"
  1652 ;; Parameters:    Size  Location     Type
  1653 ;;  state           1    wreg     unsigned char 
  1654 ;; Auto vars:     Size  Location     Type
  1655 ;;  state           1    0[COMRAM] unsigned char 
  1656 ;; Return value:  Size  Location     Type
  1657 ;;                  1    wreg      void 
  1658 ;; Registers used:
  1659 ;;		wreg, status,2, status,0
  1660 ;; Tracked objects:
  1661 ;;		On entry : 0/0
  1662 ;;		On exit  : 0/0
  1663 ;;		Unchanged: 0/0
  1664 ;; Data sizes:     COMRAM   BANK0   BANK1   BANK2   BANK3   BANK4   BANK5   BANK6   BANK7   BANK8   BANK9  BANK10  BANK1
      +1  BANK12  BANK13  BANK14  BANK15
  1665 ;;      Params:         0       0       0       0       0       0       0       0       0       0       0       0       
      +0       0       0       0       0
  1666 ;;      Locals:         1       0       0       0       0       0       0       0       0       0       0       0       
      +0       0       0       0       0
  1667 ;;      Temps:          0       0       0       0       0       0       0       0       0       0       0       0       
      +0       0       0       0       0
  1668 ;;      Totals:         1       0       0       0       0       0       0       0       0       0       0       0       
      +0       0       0       0       0
  1669 ;;Total ram usage:        1 bytes
  1670 ;; Hardware stack levels used: 1
  1671 ;; This function calls:
  1672 ;;		Nothing
  1673 ;; This function is called by:
  1674 ;;		_InterruptManagerHigh
  1675 ;; This function uses a non-reentrant model
  1676 ;;
  1677                           
  1678                           	psect	text10
  1679   00154A                     __ptext10:
  1680                           	callstack 0
  1681   00154A                     _RB7_ISR:
  1682                           	callstack 28
  1683                           
  1684                           ;incstack = 0
  1685                           ;RB7_ISR@state stored from wreg
  1686   00154A  6E7A               	movwf	RB7_ISR@state^0,c
  1687   00154C                     
  1688                           ;MCAL_Layer/Interrupt/mcal_external_interrupt.c: 260: void RB7_ISR(uint8 state);MCAL_Lay
      +                          er/Interrupt/mcal_external_interrupt.c: 261: {;MCAL_Layer/Interrupt/mcal_external_interr
      +                          upt.c: 263:     (INTCONbits.RBIF = 0);
  1689   00154C  90F2               	bcf	242,0,c	;volatile
  1690   00154E                     
  1691                           ;MCAL_Layer/Interrupt/mcal_external_interrupt.c: 267:     if(0 == state)
  1692   00154E  507A               	movf	RB7_ISR@state^0,w,c
  1693   001550  A4D8               	btfss	status,2,c
  1694   001552  EFAD  F00A         	goto	i2u56_41
  1695   001556  EFAF  F00A         	goto	i2u56_40
  1696   00155A                     i2u56_41:
  1697   00155A  EFB1  F00A         	goto	i2l2853
  1698   00155E                     i2u56_40:
  1699   00155E  EFB1  F00A         	goto	i2l1010
  1700   001562                     i2l2853:
  1701   001562                     i2l1010:
  1702   001562  0012               	return		;funcret
  1703   001564                     __end_of_RB7_ISR:
  1704                           	callstack 0
  1705                           
  1706 ;; *************** function _RB6_ISR *****************
  1707 ;; Defined at:
  1708 ;;		line 236 in file "MCAL_Layer/Interrupt/mcal_external_interrupt.c"
  1709 ;; Parameters:    Size  Location     Type
  1710 ;;  state           1    wreg     unsigned char 
  1711 ;; Auto vars:     Size  Location     Type
  1712 ;;  state           1    0[COMRAM] unsigned char 
  1713 ;; Return value:  Size  Location     Type
  1714 ;;                  1    wreg      void 
  1715 ;; Registers used:
  1716 ;;		wreg, status,2, status,0
  1717 ;; Tracked objects:
  1718 ;;		On entry : 0/0
  1719 ;;		On exit  : 0/0
  1720 ;;		Unchanged: 0/0
  1721 ;; Data sizes:     COMRAM   BANK0   BANK1   BANK2   BANK3   BANK4   BANK5   BANK6   BANK7   BANK8   BANK9  BANK10  BANK1
      +1  BANK12  BANK13  BANK14  BANK15
  1722 ;;      Params:         0       0       0       0       0       0       0       0       0       0       0       0       
      +0       0       0       0       0
  1723 ;;      Locals:         1       0       0       0       0       0       0       0       0       0       0       0       
      +0       0       0       0       0
  1724 ;;      Temps:          0       0       0       0       0       0       0       0       0       0       0       0       
      +0       0       0       0       0
  1725 ;;      Totals:         1       0       0       0       0       0       0       0       0       0       0       0       
      +0       0       0       0       0
  1726 ;;Total ram usage:        1 bytes
  1727 ;; Hardware stack levels used: 1
  1728 ;; This function calls:
  1729 ;;		Nothing
  1730 ;; This function is called by:
  1731 ;;		_InterruptManagerHigh
  1732 ;; This function uses a non-reentrant model
  1733 ;;
  1734                           
  1735                           	psect	text11
  1736   001564                     __ptext11:
  1737                           	callstack 0
  1738   001564                     _RB6_ISR:
  1739                           	callstack 28
  1740                           
  1741                           ;incstack = 0
  1742                           ;RB6_ISR@state stored from wreg
  1743   001564  6E7A               	movwf	RB6_ISR@state^0,c
  1744   001566                     
  1745                           ;MCAL_Layer/Interrupt/mcal_external_interrupt.c: 236: void RB6_ISR(uint8 state);MCAL_Lay
      +                          er/Interrupt/mcal_external_interrupt.c: 237: {;MCAL_Layer/Interrupt/mcal_external_interr
      +                          upt.c: 239:     (INTCONbits.RBIF = 0);
  1746   001566  90F2               	bcf	242,0,c	;volatile
  1747   001568                     
  1748                           ;MCAL_Layer/Interrupt/mcal_external_interrupt.c: 243:     if(0 == state)
  1749   001568  507A               	movf	RB6_ISR@state^0,w,c
  1750   00156A  A4D8               	btfss	status,2,c
  1751   00156C  EFBA  F00A         	goto	i2u55_41
  1752   001570  EFBC  F00A         	goto	i2u55_40
  1753   001574                     i2u55_41:
  1754   001574  EFBE  F00A         	goto	i2l2839
  1755   001578                     i2u55_40:
  1756   001578  EFBE  F00A         	goto	i2l999
  1757   00157C                     i2l2839:
  1758   00157C                     i2l999:
  1759   00157C  0012               	return		;funcret
  1760   00157E                     __end_of_RB6_ISR:
  1761                           	callstack 0
  1762                           
  1763 ;; *************** function _RB5_ISR *****************
  1764 ;; Defined at:
  1765 ;;		line 212 in file "MCAL_Layer/Interrupt/mcal_external_interrupt.c"
  1766 ;; Parameters:    Size  Location     Type
  1767 ;;  state           1    wreg     unsigned char 
  1768 ;; Auto vars:     Size  Location     Type
  1769 ;;  state           1    0[COMRAM] unsigned char 
  1770 ;; Return value:  Size  Location     Type
  1771 ;;                  1    wreg      void 
  1772 ;; Registers used:
  1773 ;;		wreg, status,2, status,0
  1774 ;; Tracked objects:
  1775 ;;		On entry : 0/0
  1776 ;;		On exit  : 0/0
  1777 ;;		Unchanged: 0/0
  1778 ;; Data sizes:     COMRAM   BANK0   BANK1   BANK2   BANK3   BANK4   BANK5   BANK6   BANK7   BANK8   BANK9  BANK10  BANK1
      +1  BANK12  BANK13  BANK14  BANK15
  1779 ;;      Params:         0       0       0       0       0       0       0       0       0       0       0       0       
      +0       0       0       0       0
  1780 ;;      Locals:         1       0       0       0       0       0       0       0       0       0       0       0       
      +0       0       0       0       0
  1781 ;;      Temps:          0       0       0       0       0       0       0       0       0       0       0       0       
      +0       0       0       0       0
  1782 ;;      Totals:         1       0       0       0       0       0       0       0       0       0       0       0       
      +0       0       0       0       0
  1783 ;;Total ram usage:        1 bytes
  1784 ;; Hardware stack levels used: 1
  1785 ;; This function calls:
  1786 ;;		Nothing
  1787 ;; This function is called by:
  1788 ;;		_InterruptManagerHigh
  1789 ;; This function uses a non-reentrant model
  1790 ;;
  1791                           
  1792                           	psect	text12
  1793   00157E                     __ptext12:
  1794                           	callstack 0
  1795   00157E                     _RB5_ISR:
  1796                           	callstack 28
  1797                           
  1798                           ;incstack = 0
  1799                           ;RB5_ISR@state stored from wreg
  1800   00157E  6E7A               	movwf	RB5_ISR@state^0,c
  1801   001580                     
  1802                           ;MCAL_Layer/Interrupt/mcal_external_interrupt.c: 212: void RB5_ISR(uint8 state);MCAL_Lay
      +                          er/Interrupt/mcal_external_interrupt.c: 213: {;MCAL_Layer/Interrupt/mcal_external_interr
      +                          upt.c: 215:     (INTCONbits.RBIF = 0);
  1803   001580  90F2               	bcf	242,0,c	;volatile
  1804   001582                     
  1805                           ;MCAL_Layer/Interrupt/mcal_external_interrupt.c: 219:     if(0 == state)
  1806   001582  507A               	movf	RB5_ISR@state^0,w,c
  1807   001584  A4D8               	btfss	status,2,c
  1808   001586  EFC7  F00A         	goto	i2u54_41
  1809   00158A  EFC9  F00A         	goto	i2u54_40
  1810   00158E                     i2u54_41:
  1811   00158E  EFCB  F00A         	goto	i2l2825
  1812   001592                     i2u54_40:
  1813   001592  EFCB  F00A         	goto	i2l988
  1814   001596                     i2l2825:
  1815   001596                     i2l988:
  1816   001596  0012               	return		;funcret
  1817   001598                     __end_of_RB5_ISR:
  1818                           	callstack 0
  1819                           
  1820 ;; *************** function _RB4_ISR *****************
  1821 ;; Defined at:
  1822 ;;		line 187 in file "MCAL_Layer/Interrupt/mcal_external_interrupt.c"
  1823 ;; Parameters:    Size  Location     Type
  1824 ;;  state           1    wreg     unsigned char 
  1825 ;; Auto vars:     Size  Location     Type
  1826 ;;  state           1    0[COMRAM] unsigned char 
  1827 ;; Return value:  Size  Location     Type
  1828 ;;                  1    wreg      void 
  1829 ;; Registers used:
  1830 ;;		wreg, status,2, status,0
  1831 ;; Tracked objects:
  1832 ;;		On entry : 0/0
  1833 ;;		On exit  : 0/0
  1834 ;;		Unchanged: 0/0
  1835 ;; Data sizes:     COMRAM   BANK0   BANK1   BANK2   BANK3   BANK4   BANK5   BANK6   BANK7   BANK8   BANK9  BANK10  BANK1
      +1  BANK12  BANK13  BANK14  BANK15
  1836 ;;      Params:         0       0       0       0       0       0       0       0       0       0       0       0       
      +0       0       0       0       0
  1837 ;;      Locals:         1       0       0       0       0       0       0       0       0       0       0       0       
      +0       0       0       0       0
  1838 ;;      Temps:          0       0       0       0       0       0       0       0       0       0       0       0       
      +0       0       0       0       0
  1839 ;;      Totals:         1       0       0       0       0       0       0       0       0       0       0       0       
      +0       0       0       0       0
  1840 ;;Total ram usage:        1 bytes
  1841 ;; Hardware stack levels used: 1
  1842 ;; This function calls:
  1843 ;;		Nothing
  1844 ;; This function is called by:
  1845 ;;		_InterruptManagerHigh
  1846 ;; This function uses a non-reentrant model
  1847 ;;
  1848                           
  1849                           	psect	text13
  1850   001598                     __ptext13:
  1851                           	callstack 0
  1852   001598                     _RB4_ISR:
  1853                           	callstack 28
  1854                           
  1855                           ;incstack = 0
  1856                           ;RB4_ISR@state stored from wreg
  1857   001598  6E7A               	movwf	RB4_ISR@state^0,c
  1858   00159A                     
  1859                           ;MCAL_Layer/Interrupt/mcal_external_interrupt.c: 187: void RB4_ISR(uint8 state);MCAL_Lay
      +                          er/Interrupt/mcal_external_interrupt.c: 188: {;MCAL_Layer/Interrupt/mcal_external_interr
      +                          upt.c: 190:     (INTCONbits.RBIF = 0);
  1860   00159A  90F2               	bcf	242,0,c	;volatile
  1861   00159C                     
  1862                           ;MCAL_Layer/Interrupt/mcal_external_interrupt.c: 194:     if(0 == state)
  1863   00159C  507A               	movf	RB4_ISR@state^0,w,c
  1864   00159E  A4D8               	btfss	status,2,c
  1865   0015A0  EFD4  F00A         	goto	i2u53_41
  1866   0015A4  EFD6  F00A         	goto	i2u53_40
  1867   0015A8                     i2u53_41:
  1868   0015A8  EFD8  F00A         	goto	i2l2811
  1869   0015AC                     i2u53_40:
  1870   0015AC  EFD8  F00A         	goto	i2l977
  1871   0015B0                     i2l2811:
  1872   0015B0                     i2l977:
  1873   0015B0  0012               	return		;funcret
  1874   0015B2                     __end_of_RB4_ISR:
  1875                           	callstack 0
  1876                           
  1877 ;; *************** function _MSSP_I2C_ISR *****************
  1878 ;; Defined at:
  1879 ;;		line 242 in file "MCAL_Layer/I2C/hal_i2c.c"
  1880 ;; Parameters:    Size  Location     Type
  1881 ;;		None
  1882 ;; Auto vars:     Size  Location     Type
  1883 ;;		None
  1884 ;; Return value:  Size  Location     Type
  1885 ;;                  1    wreg      void 
  1886 ;; Registers used:
  1887 ;;		None
  1888 ;; Tracked objects:
  1889 ;;		On entry : 0/0
  1890 ;;		On exit  : 0/0
  1891 ;;		Unchanged: 0/0
  1892 ;; Data sizes:     COMRAM   BANK0   BANK1   BANK2   BANK3   BANK4   BANK5   BANK6   BANK7   BANK8   BANK9  BANK10  BANK1
      +1  BANK12  BANK13  BANK14  BANK15
  1893 ;;      Params:         0       0       0       0       0       0       0       0       0       0       0       0       
      +0       0       0       0       0
  1894 ;;      Locals:         0       0       0       0       0       0       0       0       0       0       0       0       
      +0       0       0       0       0
  1895 ;;      Temps:          0       0       0       0       0       0       0       0       0       0       0       0       
      +0       0       0       0       0
  1896 ;;      Totals:         0       0       0       0       0       0       0       0       0       0       0       0       
      +0       0       0       0       0
  1897 ;;Total ram usage:        0 bytes
  1898 ;; Hardware stack levels used: 1
  1899 ;; This function calls:
  1900 ;;		Nothing
  1901 ;; This function is called by:
  1902 ;;		_InterruptManagerHigh
  1903 ;; This function uses a non-reentrant model
  1904 ;;
  1905                           
  1906                           	psect	text14
  1907   0015E8                     __ptext14:
  1908                           	callstack 0
  1909   0015E8                     _MSSP_I2C_ISR:
  1910                           	callstack 28
  1911   0015E8                     
  1912                           ;MCAL_Layer/I2C/hal_i2c.c: 244:     (PIR1bits.SSPIF = 0);
  1913   0015E8  969E               	bcf	158,3,c	;volatile
  1914   0015EA  0012               	return		;funcret
  1915   0015EC                     __end_of_MSSP_I2C_ISR:
  1916                           	callstack 0
  1917                           
  1918 ;; *************** function _MSSP_I2C_BC_ISR *****************
  1919 ;; Defined at:
  1920 ;;		line 251 in file "MCAL_Layer/I2C/hal_i2c.c"
  1921 ;; Parameters:    Size  Location     Type
  1922 ;;		None
  1923 ;; Auto vars:     Size  Location     Type
  1924 ;;		None
  1925 ;; Return value:  Size  Location     Type
  1926 ;;                  1    wreg      void 
  1927 ;; Registers used:
  1928 ;;		None
  1929 ;; Tracked objects:
  1930 ;;		On entry : 0/0
  1931 ;;		On exit  : 0/0
  1932 ;;		Unchanged: 0/0
  1933 ;; Data sizes:     COMRAM   BANK0   BANK1   BANK2   BANK3   BANK4   BANK5   BANK6   BANK7   BANK8   BANK9  BANK10  BANK1
      +1  BANK12  BANK13  BANK14  BANK15
  1934 ;;      Params:         0       0       0       0       0       0       0       0       0       0       0       0       
      +0       0       0       0       0
  1935 ;;      Locals:         0       0       0       0       0       0       0       0       0       0       0       0       
      +0       0       0       0       0
  1936 ;;      Temps:          0       0       0       0       0       0       0       0       0       0       0       0       
      +0       0       0       0       0
  1937 ;;      Totals:         0       0       0       0       0       0       0       0       0       0       0       0       
      +0       0       0       0       0
  1938 ;;Total ram usage:        0 bytes
  1939 ;; Hardware stack levels used: 1
  1940 ;; This function calls:
  1941 ;;		Nothing
  1942 ;; This function is called by:
  1943 ;;		_InterruptManagerHigh
  1944 ;; This function uses a non-reentrant model
  1945 ;;
  1946                           
  1947                           	psect	text15
  1948   0015EC                     __ptext15:
  1949                           	callstack 0
  1950   0015EC                     _MSSP_I2C_BC_ISR:
  1951                           	callstack 28
  1952   0015EC                     
  1953                           ;MCAL_Layer/I2C/hal_i2c.c: 253:     (PIR2bits.BCLIF = 0);
  1954   0015EC  96A1               	bcf	161,3,c	;volatile
  1955   0015EE  0012               	return		;funcret
  1956   0015F0                     __end_of_MSSP_I2C_BC_ISR:
  1957                           	callstack 0
  1958                           
  1959 ;; *************** function _INT2_ISR *****************
  1960 ;; Defined at:
  1961 ;;		line 109 in file "MCAL_Layer/Interrupt/mcal_external_interrupt.c"
  1962 ;; Parameters:    Size  Location     Type
  1963 ;;		None
  1964 ;; Auto vars:     Size  Location     Type
  1965 ;;		None
  1966 ;; Return value:  Size  Location     Type
  1967 ;;                  1    wreg      void 
  1968 ;; Registers used:
  1969 ;;		None
  1970 ;; Tracked objects:
  1971 ;;		On entry : 0/0
  1972 ;;		On exit  : 0/0
  1973 ;;		Unchanged: 0/0
  1974 ;; Data sizes:     COMRAM   BANK0   BANK1   BANK2   BANK3   BANK4   BANK5   BANK6   BANK7   BANK8   BANK9  BANK10  BANK1
      +1  BANK12  BANK13  BANK14  BANK15
  1975 ;;      Params:         0       0       0       0       0       0       0       0       0       0       0       0       
      +0       0       0       0       0
  1976 ;;      Locals:         0       0       0       0       0       0       0       0       0       0       0       0       
      +0       0       0       0       0
  1977 ;;      Temps:          0       0       0       0       0       0       0       0       0       0       0       0       
      +0       0       0       0       0
  1978 ;;      Totals:         0       0       0       0       0       0       0       0       0       0       0       0       
      +0       0       0       0       0
  1979 ;;Total ram usage:        0 bytes
  1980 ;; Hardware stack levels used: 1
  1981 ;; This function calls:
  1982 ;;		Nothing
  1983 ;; This function is called by:
  1984 ;;		_InterruptManagerHigh
  1985 ;; This function uses a non-reentrant model
  1986 ;;
  1987                           
  1988                           	psect	text16
  1989   0015F0                     __ptext16:
  1990                           	callstack 0
  1991   0015F0                     _INT2_ISR:
  1992                           	callstack 28
  1993   0015F0                     
  1994                           ;MCAL_Layer/Interrupt/mcal_external_interrupt.c: 112:     (INTCON3bits.INT2F = 0);
  1995   0015F0  92F0               	bcf	240,1,c	;volatile
  1996   0015F2  0012               	return		;funcret
  1997   0015F4                     __end_of_INT2_ISR:
  1998                           	callstack 0
  1999                           
  2000 ;; *************** function _INT1_ISR *****************
  2001 ;; Defined at:
  2002 ;;		line 94 in file "MCAL_Layer/Interrupt/mcal_external_interrupt.c"
  2003 ;; Parameters:    Size  Location     Type
  2004 ;;		None
  2005 ;; Auto vars:     Size  Location     Type
  2006 ;;		None
  2007 ;; Return value:  Size  Location     Type
  2008 ;;                  1    wreg      void 
  2009 ;; Registers used:
  2010 ;;		None
  2011 ;; Tracked objects:
  2012 ;;		On entry : 0/0
  2013 ;;		On exit  : 0/0
  2014 ;;		Unchanged: 0/0
  2015 ;; Data sizes:     COMRAM   BANK0   BANK1   BANK2   BANK3   BANK4   BANK5   BANK6   BANK7   BANK8   BANK9  BANK10  BANK1
      +1  BANK12  BANK13  BANK14  BANK15
  2016 ;;      Params:         0       0       0       0       0       0       0       0       0       0       0       0       
      +0       0       0       0       0
  2017 ;;      Locals:         0       0       0       0       0       0       0       0       0       0       0       0       
      +0       0       0       0       0
  2018 ;;      Temps:          0       0       0       0       0       0       0       0       0       0       0       0       
      +0       0       0       0       0
  2019 ;;      Totals:         0       0       0       0       0       0       0       0       0       0       0       0       
      +0       0       0       0       0
  2020 ;;Total ram usage:        0 bytes
  2021 ;; Hardware stack levels used: 1
  2022 ;; This function calls:
  2023 ;;		Nothing
  2024 ;; This function is called by:
  2025 ;;		_InterruptManagerHigh
  2026 ;; This function uses a non-reentrant model
  2027 ;;
  2028                           
  2029                           	psect	text17
  2030   0015F4                     __ptext17:
  2031                           	callstack 0
  2032   0015F4                     _INT1_ISR:
  2033                           	callstack 28
  2034   0015F4                     
  2035                           ;MCAL_Layer/Interrupt/mcal_external_interrupt.c: 97:     (INTCON3bits.INT1F = 0);
  2036   0015F4  90F0               	bcf	240,0,c	;volatile
  2037   0015F6  0012               	return		;funcret
  2038   0015F8                     __end_of_INT1_ISR:
  2039                           	callstack 0
  2040                           
  2041 ;; *************** function _INT0_ISR *****************
  2042 ;; Defined at:
  2043 ;;		line 79 in file "MCAL_Layer/Interrupt/mcal_external_interrupt.c"
  2044 ;; Parameters:    Size  Location     Type
  2045 ;;		None
  2046 ;; Auto vars:     Size  Location     Type
  2047 ;;		None
  2048 ;; Return value:  Size  Location     Type
  2049 ;;                  1    wreg      void 
  2050 ;; Registers used:
  2051 ;;		None
  2052 ;; Tracked objects:
  2053 ;;		On entry : 0/0
  2054 ;;		On exit  : 0/0
  2055 ;;		Unchanged: 0/0
  2056 ;; Data sizes:     COMRAM   BANK0   BANK1   BANK2   BANK3   BANK4   BANK5   BANK6   BANK7   BANK8   BANK9  BANK10  BANK1
      +1  BANK12  BANK13  BANK14  BANK15
  2057 ;;      Params:         0       0       0       0       0       0       0       0       0       0       0       0       
      +0       0       0       0       0
  2058 ;;      Locals:         0       0       0       0       0       0       0       0       0       0       0       0       
      +0       0       0       0       0
  2059 ;;      Temps:          0       0       0       0       0       0       0       0       0       0       0       0       
      +0       0       0       0       0
  2060 ;;      Totals:         0       0       0       0       0       0       0       0       0       0       0       0       
      +0       0       0       0       0
  2061 ;;Total ram usage:        0 bytes
  2062 ;; Hardware stack levels used: 1
  2063 ;; This function calls:
  2064 ;;		Nothing
  2065 ;; This function is called by:
  2066 ;;		_InterruptManagerHigh
  2067 ;; This function uses a non-reentrant model
  2068 ;;
  2069                           
  2070                           	psect	text18
  2071   0015F8                     __ptext18:
  2072                           	callstack 0
  2073   0015F8                     _INT0_ISR:
  2074                           	callstack 28
  2075   0015F8                     
  2076                           ;MCAL_Layer/Interrupt/mcal_external_interrupt.c: 82:     (INTCONbits.INT0IF = 0);
  2077   0015F8  92F2               	bcf	242,1,c	;volatile
  2078   0015FA  0012               	return		;funcret
  2079   0015FC                     __end_of_INT0_ISR:
  2080                           	callstack 0
  2081                           
  2082 ;; *************** function _ECCP_ISR *****************
  2083 ;; Defined at:
  2084 ;;		line 121 in file "MCAL_Layer/ECCP/hal_eccp.c"
  2085 ;; Parameters:    Size  Location     Type
  2086 ;;		None
  2087 ;; Auto vars:     Size  Location     Type
  2088 ;;		None
  2089 ;; Return value:  Size  Location     Type
  2090 ;;                  1    wreg      void 
  2091 ;; Registers used:
  2092 ;;		None
  2093 ;; Tracked objects:
  2094 ;;		On entry : 0/0
  2095 ;;		On exit  : 0/0
  2096 ;;		Unchanged: 0/0
  2097 ;; Data sizes:     COMRAM   BANK0   BANK1   BANK2   BANK3   BANK4   BANK5   BANK6   BANK7   BANK8   BANK9  BANK10  BANK1
      +1  BANK12  BANK13  BANK14  BANK15
  2098 ;;      Params:         0       0       0       0       0       0       0       0       0       0       0       0       
      +0       0       0       0       0
  2099 ;;      Locals:         0       0       0       0       0       0       0       0       0       0       0       0       
      +0       0       0       0       0
  2100 ;;      Temps:          0       0       0       0       0       0       0       0       0       0       0       0       
      +0       0       0       0       0
  2101 ;;      Totals:         0       0       0       0       0       0       0       0       0       0       0       0       
      +0       0       0       0       0
  2102 ;;Total ram usage:        0 bytes
  2103 ;; Hardware stack levels used: 1
  2104 ;; This function calls:
  2105 ;;		Nothing
  2106 ;; This function is called by:
  2107 ;;		_InterruptManagerHigh
  2108 ;; This function uses a non-reentrant model
  2109 ;;
  2110                           
  2111                           	psect	text19
  2112   0015FC                     __ptext19:
  2113                           	callstack 0
  2114   0015FC                     _ECCP_ISR:
  2115                           	callstack 28
  2116   0015FC                     
  2117                           ;MCAL_Layer/ECCP/hal_eccp.c: 122:     (PIR1bits.CCP1IF = 0);
  2118   0015FC  949E               	bcf	158,2,c	;volatile
  2119   0015FE  0012               	return		;funcret
  2120   001600                     __end_of_ECCP_ISR:
  2121                           	callstack 0
  2122                           
  2123 ;; *************** function _CCP2_ISR *****************
  2124 ;; Defined at:
  2125 ;;		line 423 in file "MCAL_Layer/CCP1/hal_ccp.c"
  2126 ;; Parameters:    Size  Location     Type
  2127 ;;		None
  2128 ;; Auto vars:     Size  Location     Type
  2129 ;;		None
  2130 ;; Return value:  Size  Location     Type
  2131 ;;                  1    wreg      void 
  2132 ;; Registers used:
  2133 ;;		wreg, status,2, status,0, pcl, pclath, pclatu, tosl, cstack
  2134 ;; Tracked objects:
  2135 ;;		On entry : 0/0
  2136 ;;		On exit  : 0/0
  2137 ;;		Unchanged: 0/0
  2138 ;; Data sizes:     COMRAM   BANK0   BANK1   BANK2   BANK3   BANK4   BANK5   BANK6   BANK7   BANK8   BANK9  BANK10  BANK1
      +1  BANK12  BANK13  BANK14  BANK15
  2139 ;;      Params:         0       0       0       0       0       0       0       0       0       0       0       0       
      +0       0       0       0       0
  2140 ;;      Locals:         0       0       0       0       0       0       0       0       0       0       0       0       
      +0       0       0       0       0
  2141 ;;      Temps:          0       0       0       0       0       0       0       0       0       0       0       0       
      +0       0       0       0       0
  2142 ;;      Totals:         0       0       0       0       0       0       0       0       0       0       0       0       
      +0       0       0       0       0
  2143 ;;Total ram usage:        0 bytes
  2144 ;; Hardware stack levels used: 1
  2145 ;; Hardware stack levels required when called: 1
  2146 ;; This function calls:
  2147 ;;		NULL
  2148 ;; This function is called by:
  2149 ;;		_InterruptManagerHigh
  2150 ;; This function uses a non-reentrant model
  2151 ;;
  2152                           
  2153                           	psect	text20
  2154   0014F0                     __ptext20:
  2155                           	callstack 0
  2156   0014F0                     _CCP2_ISR:
  2157                           	callstack 27
  2158   0014F0                     
  2159                           ;MCAL_Layer/CCP1/hal_ccp.c: 424:     (PIR2bits.CCP2IF = 0);
  2160   0014F0  90A1               	bcf	161,0,c	;volatile
  2161   0014F2                     
  2162                           ;MCAL_Layer/CCP1/hal_ccp.c: 425:     if(CCP2_IntterruptHandeler){
  2163   0014F2  5043               	movf	_CCP2_IntterruptHandeler^0,w,c
  2164   0014F4  1044               	iorwf	(_CCP2_IntterruptHandeler+1)^0,w,c
  2165   0014F6  B4D8               	btfsc	status,2,c
  2166   0014F8  EF80  F00A         	goto	i2u51_41
  2167   0014FC  EF82  F00A         	goto	i2u51_40
  2168   001500                     i2u51_41:
  2169   001500  EF8E  F00A         	goto	i2l536
  2170   001504                     i2u51_40:
  2171   001504                     
  2172                           ;MCAL_Layer/CCP1/hal_ccp.c: 426:        CCP2_IntterruptHandeler();
  2173   001504  D802               	call	i2u52_48
  2174   001506  EF8E  F00A         	goto	i2u52_49
  2175   00150A                     i2u52_48:
  2176   00150A  0005               	push	
  2177   00150C  6EFA               	movwf	pclath,c
  2178   00150E  5043               	movf	_CCP2_IntterruptHandeler^0,w,c
  2179   001510  6EFD               	movwf	tosl,c
  2180   001512  5044               	movf	(_CCP2_IntterruptHandeler+1)^0,w,c
  2181   001514  6EFE               	movwf	tosh,c
  2182   001516  6AFF               	clrf	tosu,c
  2183   001518  50FA               	movf	pclath,w,c
  2184   00151A  0012               	return		;indir
  2185   00151C                     i2u52_49:
  2186   00151C                     i2l536:
  2187   00151C  0012               	return		;funcret
  2188   00151E                     __end_of_CCP2_ISR:
  2189                           	callstack 0
  2190                           
  2191 ;; *************** function _CCP1_ISR *****************
  2192 ;; Defined at:
  2193 ;;		line 417 in file "MCAL_Layer/CCP1/hal_ccp.c"
  2194 ;; Parameters:    Size  Location     Type
  2195 ;;		None
  2196 ;; Auto vars:     Size  Location     Type
  2197 ;;		None
  2198 ;; Return value:  Size  Location     Type
  2199 ;;                  1    wreg      void 
  2200 ;; Registers used:
  2201 ;;		None
  2202 ;; Tracked objects:
  2203 ;;		On entry : 0/0
  2204 ;;		On exit  : 0/0
  2205 ;;		Unchanged: 0/0
  2206 ;; Data sizes:     COMRAM   BANK0   BANK1   BANK2   BANK3   BANK4   BANK5   BANK6   BANK7   BANK8   BANK9  BANK10  BANK1
      +1  BANK12  BANK13  BANK14  BANK15
  2207 ;;      Params:         0       0       0       0       0       0       0       0       0       0       0       0       
      +0       0       0       0       0
  2208 ;;      Locals:         0       0       0       0       0       0       0       0       0       0       0       0       
      +0       0       0       0       0
  2209 ;;      Temps:          0       0       0       0       0       0       0       0       0       0       0       0       
      +0       0       0       0       0
  2210 ;;      Totals:         0       0       0       0       0       0       0       0       0       0       0       0       
      +0       0       0       0       0
  2211 ;;Total ram usage:        0 bytes
  2212 ;; Hardware stack levels used: 1
  2213 ;; This function calls:
  2214 ;;		Nothing
  2215 ;; This function is called by:
  2216 ;;		_InterruptManagerHigh
  2217 ;; This function uses a non-reentrant model
  2218 ;;
  2219                           
  2220                           	psect	text21
  2221   001600                     __ptext21:
  2222                           	callstack 0
  2223   001600                     _CCP1_ISR:
  2224                           	callstack 28
  2225   001600                     
  2226                           ;MCAL_Layer/CCP1/hal_ccp.c: 418:     (PIR1bits.CCP1IF = 0);
  2227   001600  949E               	bcf	158,2,c	;volatile
  2228   001602  0012               	return		;funcret
  2229   001604                     __end_of_CCP1_ISR:
  2230                           	callstack 0
  2231                           
  2232 ;; *************** function _ADC_ISR *****************
  2233 ;; Defined at:
  2234 ;;		line 326 in file "MCAL_Layer/MCAL_ADC/mcal_adc.c"
  2235 ;; Parameters:    Size  Location     Type
  2236 ;;		None
  2237 ;; Auto vars:     Size  Location     Type
  2238 ;;		None
  2239 ;; Return value:  Size  Location     Type
  2240 ;;                  1    wreg      void 
  2241 ;; Registers used:
  2242 ;;		None
  2243 ;; Tracked objects:
  2244 ;;		On entry : 0/0
  2245 ;;		On exit  : 0/0
  2246 ;;		Unchanged: 0/0
  2247 ;; Data sizes:     COMRAM   BANK0   BANK1   BANK2   BANK3   BANK4   BANK5   BANK6   BANK7   BANK8   BANK9  BANK10  BANK1
      +1  BANK12  BANK13  BANK14  BANK15
  2248 ;;      Params:         0       0       0       0       0       0       0       0       0       0       0       0       
      +0       0       0       0       0
  2249 ;;      Locals:         0       0       0       0       0       0       0       0       0       0       0       0       
      +0       0       0       0       0
  2250 ;;      Temps:          0       0       0       0       0       0       0       0       0       0       0       0       
      +0       0       0       0       0
  2251 ;;      Totals:         0       0       0       0       0       0       0       0       0       0       0       0       
      +0       0       0       0       0
  2252 ;;Total ram usage:        0 bytes
  2253 ;; Hardware stack levels used: 1
  2254 ;; This function calls:
  2255 ;;		Nothing
  2256 ;; This function is called by:
  2257 ;;		_InterruptManagerHigh
  2258 ;; This function uses a non-reentrant model
  2259 ;;
  2260                           
  2261                           	psect	text22
  2262   00160A                     __ptext22:
  2263                           	callstack 0
  2264   00160A                     _ADC_ISR:
  2265                           	callstack 28
  2266   00160A  0012               	return		;funcret
  2267   00160C                     __end_of_ADC_ISR:
  2268                           	callstack 0
  2269                           
  2270                           	psect	rparam
  2271   000000                     
  2272                           	psect	temp
  2273   00007D                     btemp:
  2274                           	callstack 0
  2275   00007D                     	ds	1
  2276   000000                     int$flags	set	btemp
  2277   000000                     wtemp8	set	btemp+1
  2278   000000                     ttemp5	set	btemp+1
  2279   000000                     ttemp6	set	btemp+4
  2280   000000                     ttemp7	set	btemp+8
  2281                           
  2282                           	psect	idloc
  2283                           
  2284                           ;Config register IDLOC0 @ 0x200000
  2285                           ;	unspecified, using default values
  2286   200000                     	org	2097152
  2287   200000  FF                 	db	255
  2288                           
  2289                           ;Config register IDLOC1 @ 0x200001
  2290                           ;	unspecified, using default values
  2291   200001                     	org	2097153
  2292   200001  FF                 	db	255
  2293                           
  2294                           ;Config register IDLOC2 @ 0x200002
  2295                           ;	unspecified, using default values
  2296   200002                     	org	2097154
  2297   200002  FF                 	db	255
  2298                           
  2299                           ;Config register IDLOC3 @ 0x200003
  2300                           ;	unspecified, using default values
  2301   200003                     	org	2097155
  2302   200003  FF                 	db	255
  2303                           
  2304                           ;Config register IDLOC4 @ 0x200004
  2305                           ;	unspecified, using default values
  2306   200004                     	org	2097156
  2307   200004  FF                 	db	255
  2308                           
  2309                           ;Config register IDLOC5 @ 0x200005
  2310                           ;	unspecified, using default values
  2311   200005                     	org	2097157
  2312   200005  FF                 	db	255
  2313                           
  2314                           ;Config register IDLOC6 @ 0x200006
  2315                           ;	unspecified, using default values
  2316   200006                     	org	2097158
  2317   200006  FF                 	db	255
  2318                           
  2319                           ;Config register IDLOC7 @ 0x200007
  2320                           ;	unspecified, using default values
  2321   200007                     	org	2097159
  2322   200007  FF                 	db	255
  2323                           
  2324                           	psect	config
  2325                           
  2326                           ; Padding undefined space
  2327   300000                     	org	3145728
  2328   300000  FF                 	db	255
  2329                           
  2330                           ;Config register CONFIG1H @ 0x300001
  2331                           ;	Oscillator Selection bits
  2332                           ;	OSC = HS, HS oscillator
  2333                           ;	Fail-Safe Clock Monitor Enable bit
  2334                           ;	FCMEN = OFF, Fail-Safe Clock Monitor disabled
  2335                           ;	Internal/External Oscillator Switchover bit
  2336                           ;	IESO = OFF, Oscillator Switchover mode disabled
  2337   300001                     	org	3145729
  2338   300001  02                 	db	2
  2339                           
  2340                           ;Config register CONFIG2L @ 0x300002
  2341                           ;	Power-up Timer Enable bit
  2342                           ;	PWRT = OFF, PWRT disabled
  2343                           ;	Brown-out Reset Enable bits
  2344                           ;	BOREN = OFF, Brown-out Reset disabled in hardware and software
  2345                           ;	Brown Out Reset Voltage bits
  2346                           ;	BORV = 1, 
  2347   300002                     	org	3145730
  2348   300002  09                 	db	9
  2349                           
  2350                           ;Config register CONFIG2H @ 0x300003
  2351                           ;	Watchdog Timer Enable bit
  2352                           ;	WDT = OFF, WDT disabled (control is placed on the SWDTEN bit)
  2353                           ;	Watchdog Timer Postscale Select bits
  2354                           ;	WDTPS = 32768, 1:32768
  2355   300003                     	org	3145731
  2356   300003  1E                 	db	30
  2357                           
  2358                           ; Padding undefined space
  2359   300004                     	org	3145732
  2360   300004  FF                 	db	255
  2361                           
  2362                           ;Config register CONFIG3H @ 0x300005
  2363                           ;	CCP2 MUX bit
  2364                           ;	CCP2MX = PORTC, CCP2 input/output is multiplexed with RC1
  2365                           ;	PORTB A/D Enable bit
  2366                           ;	PBADEN = OFF, PORTB<4:0> pins are configured as digital I/O on Reset
  2367                           ;	Low-Power Timer1 Oscillator Enable bit
  2368                           ;	LPT1OSC = OFF, Timer1 configured for higher power operation
  2369                           ;	MCLR Pin Enable bit
  2370                           ;	MCLRE = ON, MCLR pin enabled; RE3 input pin disabled
  2371   300005                     	org	3145733
  2372   300005  81                 	db	129
  2373                           
  2374                           ;Config register CONFIG4L @ 0x300006
  2375                           ;	Stack Full/Underflow Reset Enable bit
  2376                           ;	STVREN = ON, Stack full/underflow will cause Reset
  2377                           ;	Single-Supply ICSP Enable bit
  2378                           ;	LVP = OFF, Single-Supply ICSP disabled
  2379                           ;	Extended Instruction Set Enable bit
  2380                           ;	XINST = OFF, Instruction set extension and Indexed Addressing mode disabled (Legacy mo
      +                          de)
  2381                           ;	Background Debugger Enable bit
  2382                           ;	DEBUG = 0x1, unprogrammed default
  2383   300006                     	org	3145734
  2384   300006  81                 	db	129
  2385                           
  2386                           ; Padding undefined space
  2387   300007                     	org	3145735
  2388   300007  FF                 	db	255
  2389                           
  2390                           ;Config register CONFIG5L @ 0x300008
  2391                           ;	Code Protection bit
  2392                           ;	CP0 = OFF, Block 0 (000800-003FFFh) not code-protected
  2393                           ;	Code Protection bit
  2394                           ;	CP1 = OFF, Block 1 (004000-007FFFh) not code-protected
  2395                           ;	Code Protection bit
  2396                           ;	CP2 = OFF, Block 2 (008000-00BFFFh) not code-protected
  2397                           ;	Code Protection bit
  2398                           ;	CP3 = OFF, Block 3 (00C000-00FFFFh) not code-protected
  2399   300008                     	org	3145736
  2400   300008  0F                 	db	15
  2401                           
  2402                           ;Config register CONFIG5H @ 0x300009
  2403                           ;	Boot Block Code Protection bit
  2404                           ;	CPB = OFF, Boot block (000000-0007FFh) not code-protected
  2405                           ;	Data EEPROM Code Protection bit
  2406                           ;	CPD = OFF, Data EEPROM not code-protected
  2407   300009                     	org	3145737
  2408   300009  C0                 	db	192
  2409                           
  2410                           ;Config register CONFIG6L @ 0x30000A
  2411                           ;	Write Protection bit
  2412                           ;	WRT0 = OFF, Block 0 (000800-003FFFh) not write-protected
  2413                           ;	Write Protection bit
  2414                           ;	WRT1 = OFF, Block 1 (004000-007FFFh) not write-protected
  2415                           ;	Write Protection bit
  2416                           ;	WRT2 = OFF, Block 2 (008000-00BFFFh) not write-protected
  2417                           ;	Write Protection bit
  2418                           ;	WRT3 = OFF, Block 3 (00C000-00FFFFh) not write-protected
  2419   30000A                     	org	3145738
  2420   30000A  0F                 	db	15
  2421                           
  2422                           ;Config register CONFIG6H @ 0x30000B
  2423                           ;	Configuration Register Write Protection bit
  2424                           ;	WRTC = OFF, Configuration registers (300000-3000FFh) not write-protected
  2425                           ;	Boot Block Write Protection bit
  2426                           ;	WRTB = OFF, Boot Block (000000-0007FFh) not write-protected
  2427                           ;	Data EEPROM Write Protection bit
  2428                           ;	WRTD = OFF, Data EEPROM not write-protected
  2429   30000B                     	org	3145739
  2430   30000B  E0                 	db	224
  2431                           
  2432                           ;Config register CONFIG7L @ 0x30000C
  2433                           ;	Table Read Protection bit
  2434                           ;	EBTR0 = OFF, Block 0 (000800-003FFFh) not protected from table reads executed in other
      +                           blocks
  2435                           ;	Table Read Protection bit
  2436                           ;	EBTR1 = OFF, Block 1 (004000-007FFFh) not protected from table reads executed in other
      +                           blocks
  2437                           ;	Table Read Protection bit
  2438                           ;	EBTR2 = OFF, Block 2 (008000-00BFFFh) not protected from table reads executed in other
      +                           blocks
  2439                           ;	Table Read Protection bit
  2440                           ;	EBTR3 = OFF, Block 3 (00C000-00FFFFh) not protected from table reads executed in other
      +                           blocks
  2441   30000C                     	org	3145740
  2442   30000C  0F                 	db	15
  2443                           
  2444                           ;Config register CONFIG7H @ 0x30000D
  2445                           ;	Boot Block Table Read Protection bit
  2446                           ;	EBTRB = OFF, Boot Block (000000-0007FFh) not protected from table reads executed in ot
      +                          her blocks
  2447   30000D                     	org	3145741
  2448   30000D  40                 	db	64
  2449                           tosu	equ	0xFFF
  2450                           tosh	equ	0xFFE
  2451                           tosl	equ	0xFFD
  2452                           stkptr	equ	0xFFC
  2453                           pclatu	equ	0xFFB
  2454                           pclath	equ	0xFFA
  2455                           pcl	equ	0xFF9
  2456                           tblptru	equ	0xFF8
  2457                           tblptrh	equ	0xFF7
  2458                           tblptrl	equ	0xFF6
  2459                           tablat	equ	0xFF5
  2460                           prodh	equ	0xFF4
  2461                           prodl	equ	0xFF3
  2462                           indf0	equ	0xFEF
  2463                           postinc0	equ	0xFEE
  2464                           postdec0	equ	0xFED
  2465                           preinc0	equ	0xFEC
  2466                           plusw0	equ	0xFEB
  2467                           fsr0h	equ	0xFEA
  2468                           fsr0l	equ	0xFE9
  2469                           wreg	equ	0xFE8
  2470                           indf1	equ	0xFE7
  2471                           postinc1	equ	0xFE6
  2472                           postdec1	equ	0xFE5
  2473                           preinc1	equ	0xFE4
  2474                           plusw1	equ	0xFE3
  2475                           fsr1h	equ	0xFE2
  2476                           fsr1l	equ	0xFE1
  2477                           bsr	equ	0xFE0
  2478                           indf2	equ	0xFDF
  2479                           postinc2	equ	0xFDE
  2480                           postdec2	equ	0xFDD
  2481                           preinc2	equ	0xFDC
  2482                           plusw2	equ	0xFDB
  2483                           fsr2h	equ	0xFDA
  2484                           fsr2l	equ	0xFD9
  2485                           status	equ	0xFD8

Data Sizes:
    Strings     3
    Constant    16
    Data        110
    BSS         88
    Persistent  0
    Stack       0

Auto Spaces:
    Space          Size  Autos    Used
    COMRAM          126      3     124
    BANK0           128      0      77
    BANK1           256      0       0
    BANK2           256      0       0
    BANK3           256      0       0
    BANK4           256      0       0
    BANK5           256      0       0
    BANK6           256      0       0
    BANK7           256      0       0
    BANK8           256      0       0
    BANK9           256      0       0
    BANK10          256      0       0
    BANK11          256      0       0
    BANK12          256      0       0
    BANK13          256      0       0
    BANK14          256      0       0
    BANK15          128      0       0

Pointer List with Targets:

    vfprintf$2	PTR PTR void  size(2) Largest target is 2
		 -> sprintf@ap(COMRAM[2]), 

    vfprintf$1	PTR const unsigned char  size(2) Largest target is 3
		 -> STR_3(CODE[3]), STR_2(CODE[3]), STR_1(CODE[3]), 

    vfprintf$0	PTR struct _IO_FILE size(2) Largest target is 12
		 -> sprintf@f(COMRAM[12]), 

    I2C_Report_Receive_Overflow_InterruptHandle	PTR FTN()void  size(2) Largest target is 1
		 -> NULL(), 

    S5164$source	PTR const unsigned char  size(2) Largest target is 0

    f...source	PTR const unsigned char  size(2) Largest target is 0

    S5164$buffer	PTR unsigned char  size(2) Largest target is 0

    f...buffer	PTR unsigned char  size(2) Largest target is 0

    PWM.CCP2_IntterruptHandeler	PTR FTN()void  size(2) Largest target is 0

    PWM.CCP1_IntterruptHandeler	PTR FTN()void  size(2) Largest target is 1
		 -> NULL(), 

    F2946.CCP2_IntterruptHandeler	PTR FTN()void  size(2) Largest target is 0

    F2946.CCP1_IntterruptHandeler	PTR FTN()void  size(2) Largest target is 1
		 -> NULL(), 

    PWM.CCP2_IntterruptHandeler	PTR FTN()void  size(2) Largest target is 0

    PWM.CCP1_IntterruptHandeler	PTR FTN()void  size(2) Largest target is 1
		 -> NULL(), 

    F2943.CCP2_IntterruptHandeler	PTR FTN()void  size(2) Largest target is 0

    F2943.CCP1_IntterruptHandeler	PTR FTN()void  size(2) Largest target is 1
		 -> NULL(), 

    PWM.CCP2_IntterruptHandeler	PTR FTN()void  size(2) Largest target is 0

    PWM.CCP1_IntterruptHandeler	PTR FTN()void  size(2) Largest target is 1
		 -> NULL(), 

    F2931.CCP2_IntterruptHandeler	PTR FTN()void  size(2) Largest target is 0

    F2931.CCP1_IntterruptHandeler	PTR FTN()void  size(2) Largest target is 1
		 -> NULL(), 

    PWM.CCP2_IntterruptHandeler	PTR FTN()void  size(2) Largest target is 0

    PWM.CCP1_IntterruptHandeler	PTR FTN()void  size(2) Largest target is 1
		 -> NULL(), 

    F2928.CCP2_IntterruptHandeler	PTR FTN()void  size(2) Largest target is 0

    F2928.CCP1_IntterruptHandeler	PTR FTN()void  size(2) Largest target is 1
		 -> NULL(), 

    EUSART_OVERRUNERRORDefaultHandler_	PTR FTN()void  size(2) Largest target is 1
		 -> NULL(), 

    EUSART_FRAMINGERRORDefaultHandler_	PTR FTN()void  size(2) Largest target is 1
		 -> NULL(), 

    USART_RX_IntterruptHandeler_	PTR FTN()void  size(2) Largest target is 1
		 -> NULL(), 

    EUSART_ASYNC_RX_CONFIG@_usart.EUSART_OVERRUNERRORDefaultHandler	PTR FTN()void  size(2) Largest target is 0

    EUSART_ASYNC_RX_CONFIG@_usart.EUSART_FRAMINGERRORDefaultHandler	PTR FTN()void  size(2) Largest target is 0

    EUSART_ASYNC_RX_CONFIG@_usart.EUSART_RXDefaultInterruptHandler	PTR FTN()void  size(2) Largest target is 0

    EUSART_ASYNC_RX_CONFIG@_usart.EUSART_TxDefaultInterruptHandler	PTR FTN()void  size(2) Largest target is 0

    USART_TX_IntterruptHandeler_	PTR FTN()void  size(2) Largest target is 1
		 -> NULL(), 

    EUSART_ASYNC_TX_CONFIG@_usart.EUSART_OVERRUNERRORDefaultHandler	PTR FTN()void  size(2) Largest target is 0

    EUSART_ASYNC_TX_CONFIG@_usart.EUSART_FRAMINGERRORDefaultHandler	PTR FTN()void  size(2) Largest target is 0

    EUSART_ASYNC_TX_CONFIG@_usart.EUSART_RXDefaultInterruptHandler	PTR FTN()void  size(2) Largest target is 0

    EUSART_ASYNC_TX_CONFIG@_usart.EUSART_TxDefaultInterruptHandler	PTR FTN()void  size(2) Largest target is 0

    S4034$EUSART_OVERRUNERRORDefaultHandler	PTR FTN()void  size(2) Largest target is 0

    EUSART_Baud_Rate_Calculation@_usart.EUSART_OVERRUNERRORDefaultHandler	PTR FTN()void  size(2) Largest target is 0

    S4034$EUSART_FRAMINGERRORDefaultHandler	PTR FTN()void  size(2) Largest target is 0

    EUSART_Baud_Rate_Calculation@_usart.EUSART_FRAMINGERRORDefaultHandler	PTR FTN()void  size(2) Largest target is 0

    S4034$EUSART_RXDefaultInterruptHandler	PTR FTN()void  size(2) Largest target is 0

    EUSART_Baud_Rate_Calculation@_usart.EUSART_RXDefaultInterruptHandler	PTR FTN()void  size(2) Largest target is 0

    S4034$EUSART_TxDefaultInterruptHandler	PTR FTN()void  size(2) Largest target is 0

    EUSART_Baud_Rate_Calculation@_usart.EUSART_TxDefaultInterruptHandler	PTR FTN()void  size(2) Largest target is 0

    Timer3_mode_select@_timer.TIMER3_InterruptHandler	PTR FTN()void  size(2) Largest target is 0

    TIMER3_InterruptHandler	PTR FTN()void  size(2) Largest target is 1
		 -> NULL(), 

    S3846$TIMER3_InterruptHandler	PTR FTN()void  size(2) Largest target is 0

    timer3_init@_timer.TIMER3_InterruptHandler	PTR FTN()void  size(2) Largest target is 0

    Timer1_Mode_Select@timer1_.TIMER1_IntterruptHandeler	PTR FTN()void  size(2) Largest target is 0

    TIMER1_IntterruptHandeler	PTR FTN()void  size(2) Largest target is 1
		 -> NULL(), 

    S3584$TIMER1_IntterruptHandeler	PTR FTN()void  size(2) Largest target is 0

    Timer1_Intialization@timer1_.TIMER1_IntterruptHandeler	PTR FTN()void  size(2) Largest target is 0

    Timer0_Bit_Mode_Select@timer0_.TIMER0_IntterruptHandeler	PTR FTN()void  size(2) Largest target is 0

    Timer0_Mode_Select@timer0_.TIMER0_IntterruptHandeler	PTR FTN()void  size(2) Largest target is 0

    Timer0_Prescaler_Config@timer0_.TIMER0_IntterruptHandeler	PTR FTN()void  size(2) Largest target is 0

    TIMER0_IntterruptHandeler	PTR FTN()void  size(2) Largest target is 1
		 -> NULL(), 

    S3428$TIMER0_IntterruptHandeler	PTR FTN()void  size(2) Largest target is 0

    Timer0_Intialization@timer0_.TIMER0_IntterruptHandeler	PTR FTN()void  size(2) Largest target is 0

    MSSP_SPI_Interrupt_ModeN_Configurations@_SPI_.SPI_IntterruptHandeler	PTR FTN()void  size(2) Largest target is 0

    MSSP_SPI_IntterruptHandeler	PTR FTN()void  size(2) Largest target is 1
		 -> NULL(), 

    MSSP_SPI_Slave_Mode_GPIO_PIN_Configurations@_SPI_.SPI_IntterruptHandeler	PTR FTN()void  size(2) Largest target is 0

    S3098$SPI_IntterruptHandeler	PTR FTN()void  size(2) Largest target is 0

    SPI_Init@_SPI_.SPI_IntterruptHandeler	PTR FTN()void  size(2) Largest target is 0

    Set_RBX_Handler@int_obj.Interrupt_Handler_Low	PTR FTN()void  size(2) Largest target is 0

    Set_RBX_Handler@int_obj.Interrupt_Handler_High	PTR FTN()void  size(2) Largest target is 0

    S2577$Interrupt_Handler_Low	PTR FTN()void  size(2) Largest target is 0

    Interrupt_RBX_Pin_Intiat@int_obj.Interrupt_Handler_Low	PTR FTN()void  size(2) Largest target is 0

    S2577$Interrupt_Handler_High	PTR FTN()void  size(2) Largest target is 0

    Interrupt_RBX_Pin_Intiat@int_obj.Interrupt_Handler_High	PTR FTN()void  size(2) Largest target is 0

    Set_INTX_Handler@int_obj.Interrupt_Handler	PTR FTN()void  size(2) Largest target is 0

    Interrupt_INTX_Clear_Flag@int_obj.Interrupt_Handler	PTR FTN()void  size(2) Largest target is 0

    Interrupt_INTX_Pin_Intiat@int_obj.Interrupt_Handler	PTR FTN()void  size(2) Largest target is 0

    Interrupt_INTX_Edge_Intiat@int_obj.Interrupt_Handler	PTR FTN()void  size(2) Largest target is 0

    Interrupt_INTX_Disable@int_obj.Interrupt_Handler	PTR FTN()void  size(2) Largest target is 0

    S2469$Interrupt_Handler	PTR FTN()void  size(2) Largest target is 0

    Interrupt_INTX_Enable@int_obj.Interrupt_Handler	PTR FTN()void  size(2) Largest target is 0

    RB7_interruptHandler_Low	PTR FTN()void  size(2) Largest target is 1
		 -> NULL(), 

    RB7_interruptHandler_High	PTR FTN()void  size(2) Largest target is 1
		 -> NULL(), 

    RB6_interruptHandler_Low	PTR FTN()void  size(2) Largest target is 1
		 -> NULL(), 

    RB6_interruptHandler_High	PTR FTN()void  size(2) Largest target is 1
		 -> NULL(), 

    RB5_interruptHandler_Low	PTR FTN()void  size(2) Largest target is 1
		 -> NULL(), 

    RB5_interruptHandler_High	PTR FTN()void  size(2) Largest target is 1
		 -> NULL(), 

    RB4_interruptHandler_Low	PTR FTN()void  size(2) Largest target is 1
		 -> NULL(), 

    RB4_interruptHandler_High	PTR FTN()void  size(2) Largest target is 1
		 -> NULL(), 

    INT2_interruptHandler	PTR FTN()void  size(2) Largest target is 1
		 -> NULL(), 

    INT1_interruptHandler	PTR FTN()void  size(2) Largest target is 1
		 -> NULL(), 

    INT0_interruptHandler	PTR FTN()void  size(2) Largest target is 1
		 -> NULL(), 

    MSSP_I2C_Interrupt_Configurations@i2c_obj.I2C_Report_Receive_Overflow	PTR FTN()void  size(2) Largest target is 0

    MSSP_I2C_Interrupt_Configurations@i2c_obj.I2C_DefaultInterruptHandler	PTR FTN()void  size(2) Largest target is 0

    MSSP_I2C_Interrupt_Configurations@i2c_obj.I2C_Report_Write_Collision	PTR FTN()void  size(2) Largest target is 0

    I2C_Slave_Mode_Configurations@i2c_obj.I2C_Report_Receive_Overflow	PTR FTN()void  size(2) Largest target is 0

    I2C_Slave_Mode_Configurations@i2c_obj.I2C_DefaultInterruptHandler	PTR FTN()void  size(2) Largest target is 0

    I2C_Slave_Mode_Configurations@i2c_obj.I2C_Report_Write_Collision	PTR FTN()void  size(2) Largest target is 0

    I2C_Master_Mode_Clock_Configurations@i2c_obj.I2C_Report_Receive_Overflow	PTR FTN()void  size(2) Largest target is 0

    I2C_Master_Mode_Clock_Configurations@i2c_obj.I2C_DefaultInterruptHandler	PTR FTN()void  size(2) Largest target is 0

    I2C_Master_Mode_Clock_Configurations@i2c_obj.I2C_Report_Write_Collision	PTR FTN()void  size(2) Largest target is 0

    I2C_Report_Write_Collision_InterruptHandler	PTR FTN()void  size(2) Largest target is 1
		 -> NULL(), 

    I2C_DefaultInterruptHandle	PTR FTN()void  size(2) Largest target is 1
		 -> NULL(), 

    S1948$I2C_Report_Receive_Overflow	PTR FTN()void  size(2) Largest target is 0

    MSSP_I2C_Init@i2c_obj.I2C_Report_Receive_Overflow	PTR FTN()void  size(2) Largest target is 0

    S1948$I2C_DefaultInterruptHandler	PTR FTN()void  size(2) Largest target is 0

    MSSP_I2C_Init@i2c_obj.I2C_DefaultInterruptHandler	PTR FTN()void  size(2) Largest target is 0

    S1948$I2C_Report_Write_Collision	PTR FTN()void  size(2) Largest target is 0

    MSSP_I2C_Init@i2c_obj.I2C_Report_Write_Collision	PTR FTN()void  size(2) Largest target is 0

    Port_Reg	PTR volatile unsigned char [5] size(2) Largest target is 1
		 -> PORTE(BITBIGSFRllll[1]), PORTD(BITBIGSFRllll[1]), PORTC(BITBIGSFRllll[1]), PORTB(BITBIGSFRllll[1]), 
		 -> PORTA(BITBIGSFRllll[1]), 

    Lat_Reg	PTR volatile unsigned char [5] size(2) Largest target is 1
		 -> LATE(BITBIGSFRlllh[1]), LATD(BITBIGSFRlllh[1]), LATC(BITBIGSFRlllh[1]), LATB(BITBIGSFRlllh[1]), 
		 -> LATA(BITBIGSFRllll[1]), 

    Tris_Reg	PTR volatile unsigned char [5] size(2) Largest target is 1
		 -> TRISD(ABS[1]), TRISC(ABS[1]), TRISB(ABS[1]), TRISE(ABS[1]), 
		 -> TRISA(BITBIGSFRllll[1]), 

    ECCP_Interrupt_Config@_ECCP_.ECCP_IntterruptHandeler	PTR FTN()void  size(2) Largest target is 0

    ECCP_IntterruptHandeler_	PTR FTN()void  size(2) Largest target is 1
		 -> NULL(), 

    ECCP_PWM_Start@_ECCP_.ECCP_IntterruptHandeler	PTR FTN()void  size(2) Largest target is 0

    S1457$ECCP_IntterruptHandeler	PTR FTN()void  size(2) Largest target is 0

    ECCP_intialize@_ECCP_.ECCP_IntterruptHandeler	PTR FTN()void  size(2) Largest target is 0

    CCP_Compare_Mode_Config_@_CCP_.CCP2_IntterruptHandeler	PTR FTN()void  size(2) Largest target is 0

    CCP_Compare_Mode_Config_@_CCP_.CCP1_IntterruptHandeler	PTR FTN()void  size(2) Largest target is 1
		 -> NULL(), 

    CCP_capture_Mode_Config_@_CCP_.CCP2_IntterruptHandeler	PTR FTN()void  size(2) Largest target is 0

    CCP_capture_Mode_Config_@_CCP_.CCP1_IntterruptHandeler	PTR FTN()void  size(2) Largest target is 1
		 -> NULL(), 

    CCP_Capture_Compare_Timer_Selection@_CCP_.CCP2_IntterruptHandeler	PTR FTN()void  size(2) Largest target is 0

    CCP_Capture_Compare_Timer_Selection@_CCP_.CCP1_IntterruptHandeler	PTR FTN()void  size(2) Largest target is 1
		 -> NULL(), 

    CCP_PWM_Config@_CCP_.CCP2_IntterruptHandeler	PTR FTN()void  size(2) Largest target is 0

    CCP_PWM_Config@_CCP_.CCP1_IntterruptHandeler	PTR FTN()void  size(2) Largest target is 1
		 -> NULL(), 

    CCP2_IntterruptHandeler	PTR FTN()void  size(2) Largest target is 1
		 -> PWM.CCP2_IntterruptHandeler(COMRAM[2]), PWM.CCP2_IntterruptHandeler(COMRAM[2]), NULL(), 

    CCP1_IntterruptHandeler	PTR FTN()void  size(2) Largest target is 1
		 -> NULL(), 

    CCP_Interrupt_Config@_CCP_.CCP2_IntterruptHandeler	PTR FTN()void  size(2) Largest target is 0

    CCP_Interrupt_Config@_CCP_.CCP1_IntterruptHandeler	PTR FTN()void  size(2) Largest target is 1
		 -> NULL(), 

    CCP_PWM_Stop@_CCP_.CCP2_IntterruptHandeler	PTR FTN()void  size(2) Largest target is 0

    CCP_PWM_Stop@_CCP_.CCP1_IntterruptHandeler	PTR FTN()void  size(2) Largest target is 1
		 -> NULL(), 

    CCP_PWM_Start@_CCP_.CCP2_IntterruptHandeler	PTR FTN()void  size(2) Largest target is 0

    CCP_PWM_Start@_CCP_.CCP1_IntterruptHandeler	PTR FTN()void  size(2) Largest target is 1
		 -> NULL(), 

    CCP_PWM_Set_Duty@_CCP_.CCP2_IntterruptHandeler	PTR FTN()void  size(2) Largest target is 0

    CCP_PWM_Set_Duty@_CCP_.CCP1_IntterruptHandeler	PTR FTN()void  size(2) Largest target is 1
		 -> NULL(), 

    CCP_Deintialize@_CCP_.CCP2_IntterruptHandeler	PTR FTN()void  size(2) Largest target is 0

    CCP_Deintialize@_CCP_.CCP1_IntterruptHandeler	PTR FTN()void  size(2) Largest target is 1
		 -> NULL(), 

    S879$CCP2_IntterruptHandeler	PTR FTN()void  size(2) Largest target is 0

    CCP_intialize@_CCP_.CCP2_IntterruptHandeler	PTR FTN()void  size(2) Largest target is 0

    S879$CCP1_IntterruptHandeler	PTR FTN()void  size(2) Largest target is 1
		 -> NULL(), 

    CCP_intialize@_CCP_.CCP1_IntterruptHandeler	PTR FTN()void  size(2) Largest target is 1
		 -> NULL(), 

    sp__memset	PTR void  size(2) Largest target is 0


Critical Paths under _main in COMRAM

    None.

Critical Paths under _InterruptManagerHigh in COMRAM

    _InterruptManagerHigh->_RB4_ISR
    _InterruptManagerHigh->_RB5_ISR
    _InterruptManagerHigh->_RB6_ISR
    _InterruptManagerHigh->_RB7_ISR

Critical Paths under _main in BANK0

    None.

Critical Paths under _InterruptManagerHigh in BANK0

    None.

Critical Paths under _main in BANK1

    None.

Critical Paths under _InterruptManagerHigh in BANK1

    None.

Critical Paths under _main in BANK2

    None.

Critical Paths under _InterruptManagerHigh in BANK2

    None.

Critical Paths under _main in BANK3

    None.

Critical Paths under _InterruptManagerHigh in BANK3

    None.

Critical Paths under _main in BANK4

    None.

Critical Paths under _InterruptManagerHigh in BANK4

    None.

Critical Paths under _main in BANK5

    None.

Critical Paths under _InterruptManagerHigh in BANK5

    None.

Critical Paths under _main in BANK6

    None.

Critical Paths under _InterruptManagerHigh in BANK6

    None.

Critical Paths under _main in BANK7

    None.

Critical Paths under _InterruptManagerHigh in BANK7

    None.

Critical Paths under _main in BANK8

    None.

Critical Paths under _InterruptManagerHigh in BANK8

    None.

Critical Paths under _main in BANK9

    None.

Critical Paths under _InterruptManagerHigh in BANK9

    None.

Critical Paths under _main in BANK10

    None.

Critical Paths under _InterruptManagerHigh in BANK10

    None.

Critical Paths under _main in BANK11

    None.

Critical Paths under _InterruptManagerHigh in BANK11

    None.

Critical Paths under _main in BANK12

    None.

Critical Paths under _InterruptManagerHigh in BANK12

    None.

Critical Paths under _main in BANK13

    None.

Critical Paths under _InterruptManagerHigh in BANK13

    None.

Critical Paths under _main in BANK14

    None.

Critical Paths under _InterruptManagerHigh in BANK14

    None.

Critical Paths under _main in BANK15

    None.

Critical Paths under _InterruptManagerHigh in BANK15

    None.

Call Graph Tables:

 ---------------------------------------------------------------------------------
 (Depth) Function   	        Calls       Base Space   Used Autos Params    Refs
 ---------------------------------------------------------------------------------
 (0) _main                                                 0     0      0       0
                      _intialization
 ---------------------------------------------------------------------------------
 (1) _intialization                                        0     0      0       0
 ---------------------------------------------------------------------------------
 Estimated maximum stack depth 1
 ---------------------------------------------------------------------------------
 (Depth) Function   	        Calls       Base Space   Used Autos Params    Refs
 ---------------------------------------------------------------------------------
 (2) _InterruptManagerHigh                                 2     2      0     120
                                              1 COMRAM     2     2      0
                            _ADC_ISR
                           _CCP1_ISR
                           _CCP2_ISR
                           _ECCP_ISR
                           _INT0_ISR
                           _INT1_ISR
                           _INT2_ISR
                    _MSSP_I2C_BC_ISR
                       _MSSP_I2C_ISR
                            _RB4_ISR
                            _RB5_ISR
                            _RB6_ISR
                            _RB7_ISR
                            _SPI_ISR
                         _TIMER0_ISR
                         _TIMER1_ISR
                         _TIMER2_ISR
                         _TIMER3_ISR
                       _USART_RX_ISR
                       _USART_TX_ISR
 ---------------------------------------------------------------------------------
 (3) _USART_TX_ISR                                         0     0      0       0
 ---------------------------------------------------------------------------------
 (3) _USART_RX_ISR                                         0     0      0       0
 ---------------------------------------------------------------------------------
 (3) _TIMER3_ISR                                           0     0      0       0
 ---------------------------------------------------------------------------------
 (3) _TIMER2_ISR                                           0     0      0       0
 ---------------------------------------------------------------------------------
 (3) _TIMER1_ISR                                           0     0      0       0
 ---------------------------------------------------------------------------------
 (3) _TIMER0_ISR                                           0     0      0       0
 ---------------------------------------------------------------------------------
 (3) _SPI_ISR                                              0     0      0       0
 ---------------------------------------------------------------------------------
 (3) _RB7_ISR                                              1     1      0      30
                                              0 COMRAM     1     1      0
 ---------------------------------------------------------------------------------
 (3) _RB6_ISR                                              1     1      0      30
                                              0 COMRAM     1     1      0
 ---------------------------------------------------------------------------------
 (3) _RB5_ISR                                              1     1      0      30
                                              0 COMRAM     1     1      0
 ---------------------------------------------------------------------------------
 (3) _RB4_ISR                                              1     1      0      30
                                              0 COMRAM     1     1      0
 ---------------------------------------------------------------------------------
 (3) _MSSP_I2C_ISR                                         0     0      0       0
 ---------------------------------------------------------------------------------
 (3) _MSSP_I2C_BC_ISR                                      0     0      0       0
 ---------------------------------------------------------------------------------
 (3) _INT2_ISR                                             0     0      0       0
 ---------------------------------------------------------------------------------
 (3) _INT1_ISR                                             0     0      0       0
 ---------------------------------------------------------------------------------
 (3) _INT0_ISR                                             0     0      0       0
 ---------------------------------------------------------------------------------
 (3) _ECCP_ISR                                             0     0      0       0
 ---------------------------------------------------------------------------------
 (3) _CCP2_ISR                                             0     0      0       0
                                NULL *
 ---------------------------------------------------------------------------------
 (4) NULL(Fake)                                            0     0      0       0
 ---------------------------------------------------------------------------------
 (3) _CCP1_ISR                                             0     0      0       0
 ---------------------------------------------------------------------------------
 (3) _ADC_ISR                                              0     0      0       0
 ---------------------------------------------------------------------------------
 Estimated maximum stack depth 4
 ---------------------------------------------------------------------------------

 Call Graph Graphs:

 _main (ROOT)
   _intialization

 _InterruptManagerHigh (ROOT)
   _ADC_ISR
   _CCP1_ISR
   _CCP2_ISR
     NULL(Fake) *
     _PWM.CCP2_IntterruptHandeler *
   _ECCP_ISR
   _INT0_ISR
   _INT1_ISR
   _INT2_ISR
   _MSSP_I2C_BC_ISR
   _MSSP_I2C_ISR
   _RB4_ISR
   _RB5_ISR
   _RB6_ISR
   _RB7_ISR
   _SPI_ISR
   _TIMER0_ISR
   _TIMER1_ISR
   _TIMER2_ISR
   _TIMER3_ISR
   _USART_RX_ISR
   _USART_TX_ISR

 Address spaces:
Name               Size   Autos  Total    Cost      Usage
BIGRAM             F7F      0       0      49        0.0%
EEDATA             400      0       0       0        0.0%
BITBANK14          100      0       0      33        0.0%
BANK14             100      0       0      34        0.0%
BITBANK13          100      0       0      31        0.0%
BANK13             100      0       0      32        0.0%
BITBANK12          100      0       0      29        0.0%
BANK12             100      0       0      30        0.0%
BITBANK11          100      0       0      27        0.0%
BANK11             100      0       0      28        0.0%
BITBANK10          100      0       0      25        0.0%
BANK10             100      0       0      26        0.0%
BITBANK9           100      0       0      23        0.0%
BANK9              100      0       0      24        0.0%
BITBANK8           100      0       0      21        0.0%
BANK8              100      0       0      22        0.0%
BITBANK7           100      0       0      19        0.0%
BANK7              100      0       0      20        0.0%
BITBANK6           100      0       0      17        0.0%
BANK6              100      0       0      18        0.0%
BITBANK5           100      0       0      15        0.0%
BANK5              100      0       0      16        0.0%
BITBANK4           100      0       0      13        0.0%
BANK4              100      0       0      14        0.0%
BITBANK3           100      0       0      10        0.0%
BANK3              100      0       0      11        0.0%
BITBANK2           100      0       0       8        0.0%
BANK2              100      0       0       9        0.0%
BITBANK1           100      0       0       6        0.0%
BANK1              100      0       0       7        0.0%
BITBANK15           80      0       0      35        0.0%
BANK15              80      0       0      36        0.0%
BITBANK0            80      0       0       4        0.0%
BANK0               80      0      4D       5       60.2%
BITCOMRAM           7E      0       0       0        0.0%
COMRAM              7E      3      7C       1       98.4%
BITBIGSFRhhhllh     18      0       0      38        0.0%
BITBIGSFRhhhh        D      0       0      37        0.0%
BITBIGSFRllhhll      6      0       0      46        0.0%
BITBIGSFRhhhlll      5      0       0      39        0.0%
BITBIGSFRlllh        4      0       0      47        0.0%
BITBIGSFRllhhll      4      0       0      44        0.0%
BITBIGSFRllll        4      0       0      48        0.0%
BITBIGSFRllhhll      2      0       0      43        0.0%
BITBIGSFRllhhll      1      0       0      42        0.0%
BITBIGSFRllhhll      1      0       0      45        0.0%
BITBIGSFRllhhlh      1      0       0      41        0.0%
BITBIGSFRllhhh       1      0       0      40        0.0%
BIGSFR               0      0       0     200        0.0%
BITSFR               0      0       0     200        0.0%
SFR                  0      0       0     200        0.0%
STACK                0      0       0       2        0.0%
NULL                 0      0       0       0        0.0%
ABS                  0      0      C9      12        0.0%
DATA                 0      0      C9       3        0.0%
CODE                 0      0       0       0        0.0%


Microchip Technology PIC18 Macro Assembler V2.41 build 20230208172133 
Symbol Table                                                                                   Sun Sep 10 17:22:16 2023

                                      _SSPSTATbits 0FC7                                                _PR2 0FCB  
                           ??_InterruptManagerHigh 007B                                    __end_of_ADC_ISR 160C  
                                              _ret 000B                                                tosl 0FFD  
                                              wreg 0FE8                                    __end_of_RB4_ISR 15B2  
                                  __end_of_RB5_ISR 1598                                    __end_of_RB6_ISR 157E  
                                  __end_of_RB7_ISR 1564                                               l1670 1604  
                                             l1664 15B6                                               l1665 15B6  
                                             l6593 15B2                                               STR_1 1011  
                                             _LATA 0F89                                               _LATB 0F8A  
                                             _LATC 0F8B                                               _LATD 0F8C  
                                             _LATE 0F8D                                               _TMR2 0FCC  
                        _RB6_interruptHandler_High 002B                                               _lcd1 00BC  
                                             _main 15B2                                   __end_of_CCP1_ISR 1604  
                                 __end_of_CCP2_ISR 151E                                    __end_of_SPI_ISR 15E8  
                                             fsr1l 0FE1                                               btemp 007D  
                                 __end_of_ECCP_ISR 1600                                               start 000E  
                         _RB5_interruptHandler_Low 002D                                       ___param_bank 0000  
                             _timer3_preload_value 0015                                        ?_TIMER0_ISR 007A  
                                      ?_TIMER1_ISR 007A                                        ?_TIMER2_ISR 007A  
                                      ?_TIMER3_ISR 007A                                   __end_of_INT0_ISR 15FC  
                                 __end_of_INT1_ISR 15F8                                   __end_of_INT2_ISR 15F4  
               _EUSART_FRAMINGERRORDefaultHandler_ 000F                                              ?_main 007A  
                                            _EEADR 0FA9                                              i2l532 1602  
                                            i2l536 151C                                              i2l385 160A  
                                            i2l590 15FE                                              i2l951 15F6  
                                            i2l872 15EA                                              i2l946 15FA  
                                            i2l956 15F2                                              i2l876 15EE  
                                            i2l977 15B0                                              i2l988 1596  
                                            i2l999 157C                                              _RCREG 0FAE  
                                            _TMR0H 0FD7                                              _TMR1H 0FCF  
                                            _TMR0L 0FD6                                              _TMR1L 0FCE  
                                            _TMR3H 0FB3                                              _TMR3L 0FB2  
                                            _SPBRG 0FAF                                              _PORTA 0F80  
                                            _PORTB 0F81                                              _PORTC 0F82  
                                            _PORTD 0F83                                              _PORTE 0F84  
                                            _TRISA 0F92                                              _TRISB 0F93  
                                            _TRISC 0F94                                              _TRISD 0F95  
                                            _TRISE 0F96                                              _TXREG 0FAD  
                                            pclath 0FFA                                              pclatu 0FFB  
                                            tablat 0FF5                                              ttemp5 007E  
                                            ttemp6 0081                                              ttemp7 0085  
                                            status 0FD8                                              wtemp8 007E  
                                  __initialization 144C                                       RB4_ISR@state 007A  
                                     __end_of_main 15BE                                          ??_ADC_ISR 007A  
                                     RB5_ISR@state 007A                                             ??_main 0000  
                                    __activetblptr 0003                                          ??_RB4_ISR 007A  
                                        ??_RB5_ISR 007A                                          ??_RB6_ISR 007A  
                                        ??_RB7_ISR 007A                                       RB6_ISR@state 007A  
                                        ??_SPI_ISR 007A                                             _ADRESH 0FC4  
                                           _EEADRH 0FAA                                             _ADRESL 0FC3  
                                           _EEDATA 0FA8                                             _CCPR1L 0FBE  
                                           _CCPR2L 0FBB                                             _EECON2 0FA7  
                                           i2l1010 1562                                             i2l1214 1440  
                                           i2l1312 15E6                                             i2l1190 1108  
                                           i2l1182 1040                                             i2l1511 15C8  
                                           i2l1192 114C                                             i2l1184 1060  
                                           i2l1194 1190                                             i2l1186 1080  
                                           i2l1380 15D4                                             i2l1196 11D4  
                                           i2l1188 10C4                                             i2l1438 15DE  
                                           i2l1199 125C                                             i2l4201 10AA  
                                           i2l1467 1608                                             i2l4211 10EE  
                                           i2l4203 10BA                                             i2l4301 131C  
                                           i2l4221 1132                                             i2l4213 10FE  
                                           i2l4205 10BE                                             i2l1646 15E2  
                                           i2l1655 1606                                             i2l4311 134E  
                                           i2l4303 1320                                             i2l4231 1176  
                                           i2l4223 1142                                             i2l4215 1102  
                                           i2l4207 10D2                                             i2l4321 1380  
                                           i2l4313 135C                                             i2l4305 132E  
                                           i2l4241 11BA                                             i2l4233 1186  
                                           i2l4225 1146                                             i2l4217 1116  
                                           i2l4209 10E0                                             i2l2811 15B0  
                                           i2l2803 159A                                             i2l4331 13BC  
                                           i2l4323 138E                                             i2l4315 1360  
                                           i2l4307 133C                                             i2l4251 11FE  
                                           i2l4243 11CA                                             i2l4235 118A  
                                           i2l4227 115A                                             i2l4219 1124  
                                           i2l2805 159C                                             i2l2901 15DA  
                                           i2l4341 13EE                                             i2l4333 13C0  
                                           i2l4325 139C                                             i2l4317 136E  
                                           i2l4309 1340                                             i2l4261 1234  
                                           i2l4253 120E                                             i2l4245 11CE  
                                           i2l4237 119E                                             i2l4229 1168  
                                           i2l2831 1566                                             i2l2911 15C4  
                                           i2l4351 1420                                             i2l4343 13FC  
                                           i2l4335 13CE                                             i2l4327 13A0  
                                           i2l4319 137C                                             i2l4271 1278  
                                           i2l4263 1242                                             i2l4255 1212  
                                           i2l4247 11E2                                             i2l4239 11AC  
                                           i2l4191 105C                                             i2l4183 1020  
                                           i2l2825 1596                                             i2l2817 1580  
                                           i2l2833 1568                                             i2l2921 1606  
                                           i2l4353 142E                                             i2l4345 1400  
                                           i2l4337 13DC                                             i2l4329 13AE  
                                           i2l4281 12AE                                             i2l4273 1286  
                                           i2l4265 1252                                             i2l4249 11F0  
                                           i2l4257 1218                                             i2l4193 106E  
                                           i2l4185 102E                                             i2l2763 1600  
                                           i2l2771 1504                                             i2l2819 1582  
                                           i2l2907 15BE                                             i2l2915 15E0  
                                           i2l4355 143C                                             i2l4347 140E  
                                           i2l4339 13E0                                             i2l4291 12E0  
                                           i2l4283 12BC                                             i2l4275 1296  
                                           i2l4267 1256                                             i2l4259 1226  
                                           i2l4195 107C                                             i2l4187 103C  
                                           i2l2773 15FC                                             i2l2781 15EC  
                                           i2l2853 1562                                             i2l2845 154C  
                                           i2l2933 15E4                                             i2l2909 15C0  
                                           i2l4349 141C                                             i2l4293 12EE  
                                           i2l4285 12C0                                             i2l4277 129A  
                                           i2l4269 126A                                             i2l4197 108E  
                                           i2l4189 104E                                             i2l2767 14F0  
                                           i2l2791 15F4                                             i2l2839 157C  
                                           i2l2847 154E                                             i2l4295 12FC  
                                           i2l4287 12CE                                             i2l4279 12A0  
                                           i2l4199 109C                                             i2l2769 14F2  
                                           i2l2785 15F8                                             i2l2777 15E8  
                                           i2l4297 1300                                             i2l4289 12DC  
                                           i2l2891 15CC                                             i2l4299 130E  
                                           i2l2797 15F0                                             i2l2893 15D0  
                                           i2l2889 15CA                                             i2l2899 15D6  
                                           _SPBRGH 0FB0                                       RB7_ISR@state 007A  
                                           _SSPADD 0FC8                                             _SSPBUF 0FC9  
                                           clear_0 1492                                             clear_1 149E  
                                           isa$std 0001        _I2C_Report_Receive_Overflow_InterruptHandle 003B  
                                        ?_CCP1_ISR 007A                                       __pdataCOMRAM 004E  
                                        ?_CCP2_ISR 007A                                       __mediumconst 0000  
                                        ?_ECCP_ISR 007A                                             tblptrh 0FF7  
                                           tblptrl 0FF6                                             tblptru 0FF8  
                                       __accesstop 0080                            __end_of__initialization 14A4  
                                        ?_INT0_ISR 007A                                          ?_INT1_ISR 007A  
                                        ?_INT2_ISR 007A                                   Led_Turn_On@F2825 004C  
                                    ___rparam_used 0001                           _ECCP_IntterruptHandeler_ 0041  
                                   __pcstackCOMRAM 007A                         _I2C_DefaultInterruptHandle 003D  
                                     __pidataBANK0 14AE                        _MSSP_SPI_IntterruptHandeler 0023  
                       servo_motor_intialize@F2931 009A                         servo_motor_intialize@F2926 006C  
                       servo_motor_intialize@F2928 00A7                       convert_short_to_string@F3106 0001  
                              Relay_Turn_Off@F2829 0047                            _CCP2_IntterruptHandeler 0043  
                                       ??_CCP1_ISR 007A                                         ??_CCP2_ISR 007A  
                                       ??_ECCP_ISR 007A                                         __pbssBANK0 00C2  
                                       ??_INT0_ISR 007A                                         ??_INT1_ISR 007A  
                                       ??_INT2_ISR 007A                                       ??_TIMER0_ISR 007A  
                                     ??_TIMER1_ISR 007A                                       ??_TIMER2_ISR 007A  
                                     ??_TIMER3_ISR 007A                                            _ADC_ISR 160A  
                                          _RB4_ISR 1598                                            _RB5_ISR 157E  
                                          _RB6_ISR 1564                                            _RB7_ISR 154A  
                                    ?_MSSP_I2C_ISR 007A                                            i2u51_40 1504  
                                          i2u51_41 1500                                            i2u52_48 150A  
                                          i2u53_40 15AC                                            i2u52_49 151C  
                                          i2u53_41 15A8                                            i2u54_40 1592  
                                          i2u54_41 158E                                            i2u55_40 1578  
                                          i2u55_41 1574                                            i2u56_40 155E  
                                          i2u56_41 155A                          _TIMER1_IntterruptHandeler 001D  
                                          _SPI_ISR 15E4                       _USART_RX_IntterruptHandeler_ 0011  
                        _RB4_interruptHandler_High 0033                          _RB7_interruptHandler_High 0027  
                               __end_of_TIMER0_ISR 15D6                                 __end_of_TIMER1_ISR 15E0  
                               __end_of_TIMER2_ISR 160A                                 __end_of_TIMER3_ISR 15CA  
                                          _Lat_Reg 0058                                  ??_MSSP_I2C_BC_ISR 007A  
                         _RB4_interruptHandler_Low 0031                                            __Hparam 0000  
                         _RB7_interruptHandler_Low 0025                                            __Lparam 0000  
                       servo_motor_set_angle@F2943 008D                         servo_motor_set_angle@F2946 0080  
                                     __psmallconst 1000                                            __pcinit 144C  
                                          __ramtop 1000                                            __ptext0 15B2  
                                          __ptext1 1604                                            __ptext3 15E0  
                                          __ptext4 1606                                            __ptext5 15BE  
                                          __ptext6 1608                                            __ptext7 15D6  
                                          __ptext8 15CA                                            __ptext9 15E4  
                                    _intialization 1604                                          _T0CONbits 0FD5  
                                        _T1CONbits 0FCD                                     ??_MSSP_I2C_ISR 007A  
                                        _T2CONbits 0FCA                                          _T3CONbits 0FB1  
                                   __pintcode_body 1016                               end_of_initialization 14A4  
                                          int_func 1016                                          _RCSTAbits 0FAB  
                                          postdec1 0FE5                                            postinc0 0FEE  
                                   ?_intialization 007A                                          _PORTBbits 0F81  
                               Led_Intialize@F2820 004D                              __end_of_Key_Pad_Array 1011  
                                        _TRISCbits 0F94                                      ?_USART_RX_ISR 007A  
                                    ?_USART_TX_ISR 007A                                        _CCP1CONbits 0FBD  
                                      _CCP2CONbits 0FBA                                          _TXSTAbits 0FAC  
                                Led_Turn_Off@F2830 004B                                        _ECCP1ASbits 0FB6  
                                      _BAUDCONbits 0FB8                                      __pidataCOMRAM 151E  
                              start_initialization 144C  MSSP_SPI_Msster_Mode_GPIO_PIN_Configurations@F2871 0075  
 MSSP_SPI_Slave_Mode_GPIO_PIN_Configurations@F2880 0072  MSSP_SPI_Msster_Mode_GPIO_PIN_Configurations@F2873 0074  
 MSSP_SPI_Slave_Mode_GPIO_PIN_Configurations@F2882 0071  MSSP_SPI_Msster_Mode_GPIO_PIN_Configurations@F2875 0073  
 MSSP_SPI_Slave_Mode_GPIO_PIN_Configurations@F2884 0070   MSSP_SPI_Slave_Mode_GPIO_PIN_Configurations@F2886 006F  
                                   ??_USART_RX_ISR 007A                                     ??_USART_TX_ISR 007A  
                             __end_of_MSSP_I2C_ISR 15EC                         convert_int_to_string@F3113 00C2  
                      convert_byte_to_string@F3099 0007                                    ??_intialization 0000  
                                      __pdataBANK0 0080                                           ?_ADC_ISR 007A  
                          _CCP1_IntterruptHandeler 0045                                           ?_RB4_ISR 007A  
                                         ?_RB5_ISR 007A                                           ?_RB6_ISR 007A  
                                         ?_RB7_ISR 007A                                 Relay_Turn_On@F2823 0048  
                                      __pbssCOMRAM 0001        _I2C_Report_Write_Collision_InterruptHandler 003F  
                                    __pcstackBANK0 0000                                    _MSSP_I2C_BC_ISR 15EC  
                                         ?_SPI_ISR 007A                              _INT0_interruptHandler 0039  
                     __end_of_InterruptManagerHigh 144C                                          __pintcode 0008  
                          _TIMER3_InterruptHandler 0017                                        __smallconst 1000  
                                         _CCP1_ISR 1600                                           _CCP2_ISR 14F0  
                                         _ECCP_ISR 15FC                          _TIMER0_IntterruptHandeler 0021  
                     _USART_TX_IntterruptHandeler_ 0013                          _RB5_interruptHandler_High 002F  
                                         _INT0_ISR 15F8                                           _INT1_ISR 15F4  
                                         _INT2_ISR 15F0                                           _RB4_flag 0079  
                                         _PIE1bits 0F9D                                           _PIE2bits 0FA0  
                                         _RB5_flag 0078                                           _RB6_flag 0077  
                                         _RB7_flag 0076                           _RB6_interruptHandler_Low 0029  
                                         i2u210_40 108E                                           i2u210_41 108A  
                                         i2u211_40 109C                                           i2u211_41 1098  
                                         i2u220_40 1132                                           i2u212_40 10AA  
                                         i2u204_40 102E                                           i2u220_41 112E  
                                         i2u212_41 10A6                                           i2u204_41 102A  
                                         i2u221_40 1142                                           i2u213_40 10BA  
                                         i2u205_40 103C                                           i2u221_41 113E  
                                         i2u213_41 10B6                                           i2u205_41 1038  
                                         i2u230_40 11E2                                           i2u222_40 115A  
                                         i2u214_40 10D2                                           i2u206_40 104E  
                                         i2u230_41 11DE                                           i2u222_41 1156  
                                         i2u214_41 10CE                                           i2u206_41 104A  
                                         i2u231_40 11F0                                           i2u223_40 1168  
                                         i2u215_40 10E0                                           i2u207_40 105C  
                                         i2u231_41 11EC                                           i2u223_41 1164  
                                         i2u215_41 10DC                                           i2u207_41 1058  
                                         i2u240_40 1286                                           i2u232_40 11FE  
                                         i2u224_40 1176                                           i2u216_40 10EE  
                                         i2u208_40 106E                                           i2u240_41 1282  
                                         i2u232_41 11FA                                           i2u224_41 1172  
                                         i2u216_41 10EA                                           i2u208_41 106A  
                                         i2u241_40 1296                                           i2u233_40 120E  
                                         i2u225_40 1186                                           i2u217_40 10FE  
                                         i2u209_40 107C                                           i2u241_41 1292  
                                         i2u233_41 120A                                           i2u225_41 1182  
                                         i2u217_41 10FA                                           i2u209_41 1078  
                                         i2u250_40 132E                                           i2u242_40 12AE  
                                         i2u234_40 1226                                           i2u226_40 119E  
                                         i2u218_40 1116                                           i2u250_41 132A  
                                         i2u242_41 12AA                                           i2u234_41 1222  
                                         i2u226_41 119A                                           i2u218_41 1112  
                                         i2u251_40 133C                                           i2u243_40 12BC  
                                         i2u235_40 1234                                           i2u227_40 11AC  
                                         i2u219_40 1124                                           i2u251_41 1338  
                                         i2u243_41 12B8                                           i2u235_41 1230  
                                         i2u227_41 11A8                                           i2u219_41 1120  
                                         i2u260_40 13CE                                           i2u252_40 134E  
                                         i2u244_40 12CE                                           i2u236_40 1242  
                                         i2u228_40 11BA                                           i2u260_41 13CA  
                                         i2u252_41 134A                                           i2u244_41 12CA  
                                         i2u236_41 123E                                           i2u228_41 11B6  
                                         i2u261_40 13DC                                           i2u253_40 135C  
                                         i2u245_40 12DC                                           i2u237_40 1252  
                                         i2u229_40 11CA                                           i2u261_41 13D8  
                                         i2u253_41 1358                                           i2u245_41 12D8  
                                         i2u237_41 124E                                           i2u229_41 11C6  
                                         i2u262_40 13EE                                           i2u254_40 136E  
                                         i2u246_40 12EE                                           i2u238_40 126A  
                                         i2u262_41 13EA                                           i2u254_41 136A  
                                         i2u246_41 12EA                                           i2u238_41 1266  
                                         i2u263_40 13FC                                           i2u255_40 137C  
                                         i2u247_40 12FC                                           i2u239_40 1278  
                                         i2u263_41 13F8                                           i2u255_41 1378  
                                         i2u247_41 12F8                                           i2u239_41 1274  
                                         i2u264_40 140E                                           i2u256_40 138E  
                                         i2u248_40 130E                                           i2u264_41 140A  
                                         i2u256_41 138A                                           i2u248_41 130A  
                                         i2u265_40 141C                                           i2u257_40 139C  
                                         i2u249_40 131C                                           i2u265_41 1418  
                                         i2u257_41 1398                                           i2u249_41 1318  
                                         _PIR1bits 0F9E                                           i2u266_40 142E  
                                         i2u258_40 13AE                                           i2u266_41 142A  
                                         i2u258_41 13AA                                           i2u267_40 143C  
                                         i2u259_40 13BC                                           i2u267_41 1438  
                                         i2u259_41 13B8                                           _PIR2bits 0FA1  
                             __end_of_USART_RX_ISR 1608                               __end_of_USART_TX_ISR 15E4  
                                       _ADCON0bits 0FC2                                         _ADCON1bits 0FC1  
                                       _ADCON2bits 0FC0                            __end_of_MSSP_I2C_BC_ISR 15F0  
                                      _INTCON2bits 0FF1                                        _INTCON3bits 0FF0  
                                        copy_data0 1460                                          copy_data1 1480  
                                       _EECON1bits 0FA6                                           __Hrparam 0000  
                                         __Lrparam 0000                                           _Port_Reg 004E  
                                         _Tris_Reg 0062                              _INT1_interruptHandler 0037  
                                     _MSSP_I2C_ISR 15E8                               _InterruptManagerHigh 0008  
                                         __ptext10 154A                                           __ptext11 1564  
                                         __ptext20 14F0                                           __ptext12 157E  
                                         __ptext21 1600                                           __ptext13 1598  
                                         __ptext22 160A                                           __ptext14 15E8  
                                         __ptext15 15EC                                           __ptext16 15F0  
                                         __ptext17 15F4                                           __ptext18 15F8  
                                         __ptext19 15FC                         _pre_load@mcal_timer1$F3715 001B  
                       _pre_load@mcal_timer2$F3818 0019                                           _key_pad1 00B4  
               _EUSART_OVERRUNERRORDefaultHandler_ 000D                                           _pre_load 001F  
                                         isa$xinst 0000                                           int$flags 007D  
                                 ?_MSSP_I2C_BC_ISR 007A                                         _INTCONbits 0FF2  
                                      _PWM1CONbits 0FB7                              ?_InterruptManagerHigh 007A  
                                         intlevel2 0000                                    Led_Toggle@F2835 004A  
                                       _TIMER0_ISR 15CA                                         _TIMER1_ISR 15D6  
                                       _TIMER2_ISR 1608                                         _TIMER3_ISR 15BE  
                            __end_of_intialization 1606                                      _Key_Pad_Array 1001  
                                      _SSPCON1bits 0FC6                                        _SSPCON2bits 0FC5  
                             Relay_Intialize@F2818 0049                                       _USART_RX_ISR 1606  
                                     _USART_TX_ISR 15E0                              _INT2_interruptHandler 0035  
